Archive member included to satisfy reference by file (symbol)

c:/intelfpga_lite/23.1std/nios2eds/bin/gnu/h-x86_64-mingw32/bin/../lib/gcc/nios2-elf/12.3.1/../../../../../H-x86_64-mingw32/nios2-elf/lib/mhw-mulx\libm.a(libm_a-sf_cos.o)
                              obj/default/hello_world.o (cosf)
c:/intelfpga_lite/23.1std/nios2eds/bin/gnu/h-x86_64-mingw32/bin/../lib/gcc/nios2-elf/12.3.1/../../../../../H-x86_64-mingw32/nios2-elf/lib/mhw-mulx\libm.a(libm_a-kf_cos.o)
                              c:/intelfpga_lite/23.1std/nios2eds/bin/gnu/h-x86_64-mingw32/bin/../lib/gcc/nios2-elf/12.3.1/../../../../../H-x86_64-mingw32/nios2-elf/lib/mhw-mulx\libm.a(libm_a-sf_cos.o) (__kernel_cosf)
c:/intelfpga_lite/23.1std/nios2eds/bin/gnu/h-x86_64-mingw32/bin/../lib/gcc/nios2-elf/12.3.1/../../../../../H-x86_64-mingw32/nios2-elf/lib/mhw-mulx\libm.a(libm_a-kf_sin.o)
                              c:/intelfpga_lite/23.1std/nios2eds/bin/gnu/h-x86_64-mingw32/bin/../lib/gcc/nios2-elf/12.3.1/../../../../../H-x86_64-mingw32/nios2-elf/lib/mhw-mulx\libm.a(libm_a-sf_cos.o) (__kernel_sinf)
c:/intelfpga_lite/23.1std/nios2eds/bin/gnu/h-x86_64-mingw32/bin/../lib/gcc/nios2-elf/12.3.1/../../../../../H-x86_64-mingw32/nios2-elf/lib/mhw-mulx\libm.a(libm_a-ef_rem_pio2.o)
                              c:/intelfpga_lite/23.1std/nios2eds/bin/gnu/h-x86_64-mingw32/bin/../lib/gcc/nios2-elf/12.3.1/../../../../../H-x86_64-mingw32/nios2-elf/lib/mhw-mulx\libm.a(libm_a-sf_cos.o) (__ieee754_rem_pio2f)
c:/intelfpga_lite/23.1std/nios2eds/bin/gnu/h-x86_64-mingw32/bin/../lib/gcc/nios2-elf/12.3.1/../../../../../H-x86_64-mingw32/nios2-elf/lib/mhw-mulx\libm.a(libm_a-sf_fabs.o)
                              c:/intelfpga_lite/23.1std/nios2eds/bin/gnu/h-x86_64-mingw32/bin/../lib/gcc/nios2-elf/12.3.1/../../../../../H-x86_64-mingw32/nios2-elf/lib/mhw-mulx\libm.a(libm_a-ef_rem_pio2.o) (fabsf)
c:/intelfpga_lite/23.1std/nios2eds/bin/gnu/h-x86_64-mingw32/bin/../lib/gcc/nios2-elf/12.3.1/../../../../../H-x86_64-mingw32/nios2-elf/lib/mhw-mulx\libm.a(libm_a-kf_rem_pio2.o)
                              c:/intelfpga_lite/23.1std/nios2eds/bin/gnu/h-x86_64-mingw32/bin/../lib/gcc/nios2-elf/12.3.1/../../../../../H-x86_64-mingw32/nios2-elf/lib/mhw-mulx\libm.a(libm_a-ef_rem_pio2.o) (__kernel_rem_pio2f)
c:/intelfpga_lite/23.1std/nios2eds/bin/gnu/h-x86_64-mingw32/bin/../lib/gcc/nios2-elf/12.3.1/../../../../../H-x86_64-mingw32/nios2-elf/lib/mhw-mulx\libm.a(libm_a-sf_floor.o)
                              c:/intelfpga_lite/23.1std/nios2eds/bin/gnu/h-x86_64-mingw32/bin/../lib/gcc/nios2-elf/12.3.1/../../../../../H-x86_64-mingw32/nios2-elf/lib/mhw-mulx\libm.a(libm_a-kf_rem_pio2.o) (floorf)
c:/intelfpga_lite/23.1std/nios2eds/bin/gnu/h-x86_64-mingw32/bin/../lib/gcc/nios2-elf/12.3.1/../../../../../H-x86_64-mingw32/nios2-elf/lib/mhw-mulx\libm.a(libm_a-sf_scalbn.o)
                              c:/intelfpga_lite/23.1std/nios2eds/bin/gnu/h-x86_64-mingw32/bin/../lib/gcc/nios2-elf/12.3.1/../../../../../H-x86_64-mingw32/nios2-elf/lib/mhw-mulx\libm.a(libm_a-kf_rem_pio2.o) (scalbnf)
c:/intelfpga_lite/23.1std/nios2eds/bin/gnu/h-x86_64-mingw32/bin/../lib/gcc/nios2-elf/12.3.1/mhw-mulx\libgcc.a(addsf3.o)
                              obj/default/hello_world.o (__addsf3)
c:/intelfpga_lite/23.1std/nios2eds/bin/gnu/h-x86_64-mingw32/bin/../lib/gcc/nios2-elf/12.3.1/mhw-mulx\libgcc.a(divsf3.o)
                              obj/default/hello_world.o (__divsf3)
c:/intelfpga_lite/23.1std/nios2eds/bin/gnu/h-x86_64-mingw32/bin/../lib/gcc/nios2-elf/12.3.1/mhw-mulx\libgcc.a(eqsf2.o)
                              c:/intelfpga_lite/23.1std/nios2eds/bin/gnu/h-x86_64-mingw32/bin/../lib/gcc/nios2-elf/12.3.1/../../../../../H-x86_64-mingw32/nios2-elf/lib/mhw-mulx\libm.a(libm_a-ef_rem_pio2.o) (__eqsf2)
c:/intelfpga_lite/23.1std/nios2eds/bin/gnu/h-x86_64-mingw32/bin/../lib/gcc/nios2-elf/12.3.1/mhw-mulx\libgcc.a(gesf2.o)
                              c:/intelfpga_lite/23.1std/nios2eds/bin/gnu/h-x86_64-mingw32/bin/../lib/gcc/nios2-elf/12.3.1/../../../../../H-x86_64-mingw32/nios2-elf/lib/mhw-mulx\libm.a(libm_a-kf_rem_pio2.o) (__gesf2)
c:/intelfpga_lite/23.1std/nios2eds/bin/gnu/h-x86_64-mingw32/bin/../lib/gcc/nios2-elf/12.3.1/mhw-mulx\libgcc.a(mulsf3.o)
                              obj/default/hello_world.o (__mulsf3)
c:/intelfpga_lite/23.1std/nios2eds/bin/gnu/h-x86_64-mingw32/bin/../lib/gcc/nios2-elf/12.3.1/mhw-mulx\libgcc.a(subsf3.o)
                              obj/default/hello_world.o (__subsf3)
c:/intelfpga_lite/23.1std/nios2eds/bin/gnu/h-x86_64-mingw32/bin/../lib/gcc/nios2-elf/12.3.1/mhw-mulx\libgcc.a(fixsfsi.o)
                              obj/default/hello_world.o (__fixsfsi)
c:/intelfpga_lite/23.1std/nios2eds/bin/gnu/h-x86_64-mingw32/bin/../lib/gcc/nios2-elf/12.3.1/mhw-mulx\libgcc.a(floatsisf.o)
                              obj/default/hello_world.o (__floatsisf)
c:/intelfpga_lite/23.1std/nios2eds/bin/gnu/h-x86_64-mingw32/bin/../lib/gcc/nios2-elf/12.3.1/mhw-mulx\libgcc.a(_clzsi2.o)
                              c:/intelfpga_lite/23.1std/nios2eds/bin/gnu/h-x86_64-mingw32/bin/../lib/gcc/nios2-elf/12.3.1/mhw-mulx\libgcc.a(addsf3.o) (__clzsi2)
c:/intelfpga_lite/23.1std/nios2eds/bin/gnu/h-x86_64-mingw32/bin/../lib/gcc/nios2-elf/12.3.1/mhw-mulx\libgcc.a(_clz.o)
                              c:/intelfpga_lite/23.1std/nios2eds/bin/gnu/h-x86_64-mingw32/bin/../lib/gcc/nios2-elf/12.3.1/mhw-mulx\libgcc.a(_clzsi2.o) (__clz_tab)
c:/intelfpga_lite/23.1std/nios2eds/bin/gnu/h-x86_64-mingw32/bin/../lib/gcc/nios2-elf/12.3.1/../../../../../H-x86_64-mingw32/nios2-elf/lib/mhw-mulx\libc.a(libc_a-rand.o)
                              obj/default/hello_world.o (srand)
c:/intelfpga_lite/23.1std/nios2eds/bin/gnu/h-x86_64-mingw32/bin/../lib/gcc/nios2-elf/12.3.1/../../../../../H-x86_64-mingw32/nios2-elf/lib/mhw-mulx\libc.a(libc_a-printf.o)
                              obj/default/hello_world.o (printf)
c:/intelfpga_lite/23.1std/nios2eds/bin/gnu/h-x86_64-mingw32/bin/../lib/gcc/nios2-elf/12.3.1/../../../../../H-x86_64-mingw32/nios2-elf/lib/mhw-mulx\libc.a(libc_a-puts.o)
                              obj/default/hello_world.o (puts)
c:/intelfpga_lite/23.1std/nios2eds/bin/gnu/h-x86_64-mingw32/bin/../lib/gcc/nios2-elf/12.3.1/../../../../../H-x86_64-mingw32/nios2-elf/lib/mhw-mulx\libc.a(libc_a-strlen.o)
                              c:/intelfpga_lite/23.1std/nios2eds/bin/gnu/h-x86_64-mingw32/bin/../lib/gcc/nios2-elf/12.3.1/../../../../../H-x86_64-mingw32/nios2-elf/lib/mhw-mulx\libc.a(libc_a-puts.o) (strlen)
c:/intelfpga_lite/23.1std/nios2eds/bin/gnu/h-x86_64-mingw32/bin/../lib/gcc/nios2-elf/12.3.1/../../../../../H-x86_64-mingw32/nios2-elf/lib/mhw-mulx\libc.a(libc_a-impure.o)
                              c:/intelfpga_lite/23.1std/nios2eds/bin/gnu/h-x86_64-mingw32/bin/../lib/gcc/nios2-elf/12.3.1/../../../../../H-x86_64-mingw32/nios2-elf/lib/mhw-mulx\libc.a(libc_a-rand.o) (_impure_ptr)
c:/intelfpga_lite/23.1std/nios2eds/bin/gnu/h-x86_64-mingw32/bin/../lib/gcc/nios2-elf/12.3.1/../../../../../H-x86_64-mingw32/nios2-elf/lib/mhw-mulx\libc.a(libc_a-vfprintf.o)
                              c:/intelfpga_lite/23.1std/nios2eds/bin/gnu/h-x86_64-mingw32/bin/../lib/gcc/nios2-elf/12.3.1/../../../../../H-x86_64-mingw32/nios2-elf/lib/mhw-mulx\libc.a(libc_a-printf.o) (___vfprintf_internal_r)
c:/intelfpga_lite/23.1std/nios2eds/bin/gnu/h-x86_64-mingw32/bin/../lib/gcc/nios2-elf/12.3.1/../../../../../H-x86_64-mingw32/nios2-elf/lib/mhw-mulx\libc.a(libc_a-vfiprintf.o)
                              c:/intelfpga_lite/23.1std/nios2eds/bin/gnu/h-x86_64-mingw32/bin/../lib/gcc/nios2-elf/12.3.1/../../../../../H-x86_64-mingw32/nios2-elf/lib/mhw-mulx\libc.a(libc_a-vfprintf.o) (__sprint_r)
c:/intelfpga_lite/23.1std/nios2eds/bin/gnu/h-x86_64-mingw32/bin/../lib/gcc/nios2-elf/12.3.1/../../../../../H-x86_64-mingw32/nios2-elf/lib/mhw-mulx\libc.a(libc_a-fflush.o)
                              c:/intelfpga_lite/23.1std/nios2eds/bin/gnu/h-x86_64-mingw32/bin/../lib/gcc/nios2-elf/12.3.1/../../../../../H-x86_64-mingw32/nios2-elf/lib/mhw-mulx\libc.a(libc_a-vfprintf.o) (_fflush_r)
c:/intelfpga_lite/23.1std/nios2eds/bin/gnu/h-x86_64-mingw32/bin/../lib/gcc/nios2-elf/12.3.1/../../../../../H-x86_64-mingw32/nios2-elf/lib/mhw-mulx\libc.a(libc_a-findfp.o)
                              c:/intelfpga_lite/23.1std/nios2eds/bin/gnu/h-x86_64-mingw32/bin/../lib/gcc/nios2-elf/12.3.1/../../../../../H-x86_64-mingw32/nios2-elf/lib/mhw-mulx\libc.a(libc_a-fflush.o) (__sglue)
c:/intelfpga_lite/23.1std/nios2eds/bin/gnu/h-x86_64-mingw32/bin/../lib/gcc/nios2-elf/12.3.1/../../../../../H-x86_64-mingw32/nios2-elf/lib/mhw-mulx\libc.a(libc_a-fvwrite.o)
                              c:/intelfpga_lite/23.1std/nios2eds/bin/gnu/h-x86_64-mingw32/bin/../lib/gcc/nios2-elf/12.3.1/../../../../../H-x86_64-mingw32/nios2-elf/lib/mhw-mulx\libc.a(libc_a-puts.o) (__sfvwrite_r)
c:/intelfpga_lite/23.1std/nios2eds/bin/gnu/h-x86_64-mingw32/bin/../lib/gcc/nios2-elf/12.3.1/../../../../../H-x86_64-mingw32/nios2-elf/lib/mhw-mulx\libc.a(libc_a-fwalk.o)
                              c:/intelfpga_lite/23.1std/nios2eds/bin/gnu/h-x86_64-mingw32/bin/../lib/gcc/nios2-elf/12.3.1/../../../../../H-x86_64-mingw32/nios2-elf/lib/mhw-mulx\libc.a(libc_a-fflush.o) (_fwalk_sglue)
c:/intelfpga_lite/23.1std/nios2eds/bin/gnu/h-x86_64-mingw32/bin/../lib/gcc/nios2-elf/12.3.1/../../../../../H-x86_64-mingw32/nios2-elf/lib/mhw-mulx\libc.a(libc_a-stdio.o)
                              c:/intelfpga_lite/23.1std/nios2eds/bin/gnu/h-x86_64-mingw32/bin/../lib/gcc/nios2-elf/12.3.1/../../../../../H-x86_64-mingw32/nios2-elf/lib/mhw-mulx\libc.a(libc_a-findfp.o) (__sread)
c:/intelfpga_lite/23.1std/nios2eds/bin/gnu/h-x86_64-mingw32/bin/../lib/gcc/nios2-elf/12.3.1/../../../../../H-x86_64-mingw32/nios2-elf/lib/mhw-mulx\libc.a(libc_a-wsetup.o)
                              c:/intelfpga_lite/23.1std/nios2eds/bin/gnu/h-x86_64-mingw32/bin/../lib/gcc/nios2-elf/12.3.1/../../../../../H-x86_64-mingw32/nios2-elf/lib/mhw-mulx\libc.a(libc_a-vfprintf.o) (__swsetup_r)
c:/intelfpga_lite/23.1std/nios2eds/bin/gnu/h-x86_64-mingw32/bin/../lib/gcc/nios2-elf/12.3.1/../../../../../H-x86_64-mingw32/nios2-elf/lib/mhw-mulx\libc.a(libc_a-fputwc.o)
                              c:/intelfpga_lite/23.1std/nios2eds/bin/gnu/h-x86_64-mingw32/bin/../lib/gcc/nios2-elf/12.3.1/../../../../../H-x86_64-mingw32/nios2-elf/lib/mhw-mulx\libc.a(libc_a-vfiprintf.o) (_fputwc_r)
c:/intelfpga_lite/23.1std/nios2eds/bin/gnu/h-x86_64-mingw32/bin/../lib/gcc/nios2-elf/12.3.1/../../../../../H-x86_64-mingw32/nios2-elf/lib/mhw-mulx\libc.a(libc_a-memchr.o)
                              c:/intelfpga_lite/23.1std/nios2eds/bin/gnu/h-x86_64-mingw32/bin/../lib/gcc/nios2-elf/12.3.1/../../../../../H-x86_64-mingw32/nios2-elf/lib/mhw-mulx\libc.a(libc_a-vfprintf.o) (memchr)
c:/intelfpga_lite/23.1std/nios2eds/bin/gnu/h-x86_64-mingw32/bin/../lib/gcc/nios2-elf/12.3.1/../../../../../H-x86_64-mingw32/nios2-elf/lib/mhw-mulx\libc.a(libc_a-memcpy.o)
                              c:/intelfpga_lite/23.1std/nios2eds/bin/gnu/h-x86_64-mingw32/bin/../lib/gcc/nios2-elf/12.3.1/../../../../../H-x86_64-mingw32/nios2-elf/lib/mhw-mulx\libc.a(libc_a-fvwrite.o) (memcpy)
c:/intelfpga_lite/23.1std/nios2eds/bin/gnu/h-x86_64-mingw32/bin/../lib/gcc/nios2-elf/12.3.1/../../../../../H-x86_64-mingw32/nios2-elf/lib/mhw-mulx\libc.a(libc_a-memmove.o)
                              c:/intelfpga_lite/23.1std/nios2eds/bin/gnu/h-x86_64-mingw32/bin/../lib/gcc/nios2-elf/12.3.1/../../../../../H-x86_64-mingw32/nios2-elf/lib/mhw-mulx\libc.a(libc_a-fvwrite.o) (memmove)
c:/intelfpga_lite/23.1std/nios2eds/bin/gnu/h-x86_64-mingw32/bin/../lib/gcc/nios2-elf/12.3.1/../../../../../H-x86_64-mingw32/nios2-elf/lib/mhw-mulx\libc.a(libc_a-memset.o)
                              c:/intelfpga_lite/23.1std/nios2eds/bin/gnu/h-x86_64-mingw32/bin/../lib/gcc/nios2-elf/12.3.1/../../../../../H-x86_64-mingw32/nios2-elf/lib/mhw-mulx\libc.a(libc_a-findfp.o) (memset)
c:/intelfpga_lite/23.1std/nios2eds/bin/gnu/h-x86_64-mingw32/bin/../lib/gcc/nios2-elf/12.3.1/../../../../../H-x86_64-mingw32/nios2-elf/lib/mhw-mulx\libc.a(libc_a-locale.o)
                              c:/intelfpga_lite/23.1std/nios2eds/bin/gnu/h-x86_64-mingw32/bin/../lib/gcc/nios2-elf/12.3.1/../../../../../H-x86_64-mingw32/nios2-elf/lib/mhw-mulx\libc.a(libc_a-fputwc.o) (__locale_mb_cur_max)
c:/intelfpga_lite/23.1std/nios2eds/bin/gnu/h-x86_64-mingw32/bin/../lib/gcc/nios2-elf/12.3.1/../../../../../H-x86_64-mingw32/nios2-elf/lib/mhw-mulx\libc.a(libc_a-localeconv.o)
                              c:/intelfpga_lite/23.1std/nios2eds/bin/gnu/h-x86_64-mingw32/bin/../lib/gcc/nios2-elf/12.3.1/../../../../../H-x86_64-mingw32/nios2-elf/lib/mhw-mulx\libc.a(libc_a-vfprintf.o) (_localeconv_r)
c:/intelfpga_lite/23.1std/nios2eds/bin/gnu/h-x86_64-mingw32/bin/../lib/gcc/nios2-elf/12.3.1/../../../../../H-x86_64-mingw32/nios2-elf/lib/mhw-mulx\libc.a(libc_a-closer.o)
                              c:/intelfpga_lite/23.1std/nios2eds/bin/gnu/h-x86_64-mingw32/bin/../lib/gcc/nios2-elf/12.3.1/../../../../../H-x86_64-mingw32/nios2-elf/lib/mhw-mulx\libc.a(libc_a-stdio.o) (_close_r)
c:/intelfpga_lite/23.1std/nios2eds/bin/gnu/h-x86_64-mingw32/bin/../lib/gcc/nios2-elf/12.3.1/../../../../../H-x86_64-mingw32/nios2-elf/lib/mhw-mulx\libc.a(libc_a-reent.o)
                              c:/intelfpga_lite/23.1std/nios2eds/bin/gnu/h-x86_64-mingw32/bin/../lib/gcc/nios2-elf/12.3.1/../../../../../H-x86_64-mingw32/nios2-elf/lib/mhw-mulx\libc.a(libc_a-closer.o) (errno)
c:/intelfpga_lite/23.1std/nios2eds/bin/gnu/h-x86_64-mingw32/bin/../lib/gcc/nios2-elf/12.3.1/../../../../../H-x86_64-mingw32/nios2-elf/lib/mhw-mulx\libc.a(libc_a-lseekr.o)
                              c:/intelfpga_lite/23.1std/nios2eds/bin/gnu/h-x86_64-mingw32/bin/../lib/gcc/nios2-elf/12.3.1/../../../../../H-x86_64-mingw32/nios2-elf/lib/mhw-mulx\libc.a(libc_a-stdio.o) (_lseek_r)
c:/intelfpga_lite/23.1std/nios2eds/bin/gnu/h-x86_64-mingw32/bin/../lib/gcc/nios2-elf/12.3.1/../../../../../H-x86_64-mingw32/nios2-elf/lib/mhw-mulx\libc.a(libc_a-readr.o)
                              c:/intelfpga_lite/23.1std/nios2eds/bin/gnu/h-x86_64-mingw32/bin/../lib/gcc/nios2-elf/12.3.1/../../../../../H-x86_64-mingw32/nios2-elf/lib/mhw-mulx\libc.a(libc_a-stdio.o) (_read_r)
c:/intelfpga_lite/23.1std/nios2eds/bin/gnu/h-x86_64-mingw32/bin/../lib/gcc/nios2-elf/12.3.1/../../../../../H-x86_64-mingw32/nios2-elf/lib/mhw-mulx\libc.a(libc_a-writer.o)
                              c:/intelfpga_lite/23.1std/nios2eds/bin/gnu/h-x86_64-mingw32/bin/../lib/gcc/nios2-elf/12.3.1/../../../../../H-x86_64-mingw32/nios2-elf/lib/mhw-mulx\libc.a(libc_a-stdio.o) (_write_r)
c:/intelfpga_lite/23.1std/nios2eds/bin/gnu/h-x86_64-mingw32/bin/../lib/gcc/nios2-elf/12.3.1/../../../../../H-x86_64-mingw32/nios2-elf/lib/mhw-mulx\libc.a(libc_a-dtoa.o)
                              c:/intelfpga_lite/23.1std/nios2eds/bin/gnu/h-x86_64-mingw32/bin/../lib/gcc/nios2-elf/12.3.1/../../../../../H-x86_64-mingw32/nios2-elf/lib/mhw-mulx\libc.a(libc_a-vfprintf.o) (_dtoa_r)
c:/intelfpga_lite/23.1std/nios2eds/bin/gnu/h-x86_64-mingw32/bin/../lib/gcc/nios2-elf/12.3.1/../../../../../H-x86_64-mingw32/nios2-elf/lib/mhw-mulx\libc.a(libc_a-exit.o)
                              c:/intelfpga_lite/23.1std/nios2eds/bin/gnu/h-x86_64-mingw32/bin/../lib/gcc/nios2-elf/12.3.1/../../../../../H-x86_64-mingw32/nios2-elf/lib/mhw-mulx\libc.a(libc_a-findfp.o) (__stdio_exit_handler)
c:/intelfpga_lite/23.1std/nios2eds/bin/gnu/h-x86_64-mingw32/bin/../lib/gcc/nios2-elf/12.3.1/../../../../../H-x86_64-mingw32/nios2-elf/lib/mhw-mulx\libc.a(libc_a-freer.o)
                              c:/intelfpga_lite/23.1std/nios2eds/bin/gnu/h-x86_64-mingw32/bin/../lib/gcc/nios2-elf/12.3.1/../../../../../H-x86_64-mingw32/nios2-elf/lib/mhw-mulx\libc.a(libc_a-fflush.o) (_free_r)
c:/intelfpga_lite/23.1std/nios2eds/bin/gnu/h-x86_64-mingw32/bin/../lib/gcc/nios2-elf/12.3.1/../../../../../H-x86_64-mingw32/nios2-elf/lib/mhw-mulx\libc.a(libc_a-mallocr.o)
                              c:/intelfpga_lite/23.1std/nios2eds/bin/gnu/h-x86_64-mingw32/bin/../lib/gcc/nios2-elf/12.3.1/../../../../../H-x86_64-mingw32/nios2-elf/lib/mhw-mulx\libc.a(libc_a-findfp.o) (_malloc_r)
c:/intelfpga_lite/23.1std/nios2eds/bin/gnu/h-x86_64-mingw32/bin/../lib/gcc/nios2-elf/12.3.1/../../../../../H-x86_64-mingw32/nios2-elf/lib/mhw-mulx\libc.a(libc_a-mbtowc_r.o)
                              c:/intelfpga_lite/23.1std/nios2eds/bin/gnu/h-x86_64-mingw32/bin/../lib/gcc/nios2-elf/12.3.1/../../../../../H-x86_64-mingw32/nios2-elf/lib/mhw-mulx\libc.a(libc_a-locale.o) (__ascii_mbtowc)
c:/intelfpga_lite/23.1std/nios2eds/bin/gnu/h-x86_64-mingw32/bin/../lib/gcc/nios2-elf/12.3.1/../../../../../H-x86_64-mingw32/nios2-elf/lib/mhw-mulx\libc.a(libc_a-mprec.o)
                              c:/intelfpga_lite/23.1std/nios2eds/bin/gnu/h-x86_64-mingw32/bin/../lib/gcc/nios2-elf/12.3.1/../../../../../H-x86_64-mingw32/nios2-elf/lib/mhw-mulx\libc.a(libc_a-dtoa.o) (_Balloc)
c:/intelfpga_lite/23.1std/nios2eds/bin/gnu/h-x86_64-mingw32/bin/../lib/gcc/nios2-elf/12.3.1/../../../../../H-x86_64-mingw32/nios2-elf/lib/mhw-mulx\libc.a(libc_a-reallocr.o)
                              c:/intelfpga_lite/23.1std/nios2eds/bin/gnu/h-x86_64-mingw32/bin/../lib/gcc/nios2-elf/12.3.1/../../../../../H-x86_64-mingw32/nios2-elf/lib/mhw-mulx\libc.a(libc_a-fvwrite.o) (_realloc_r)
c:/intelfpga_lite/23.1std/nios2eds/bin/gnu/h-x86_64-mingw32/bin/../lib/gcc/nios2-elf/12.3.1/../../../../../H-x86_64-mingw32/nios2-elf/lib/mhw-mulx\libc.a(libc_a-wctomb_r.o)
                              c:/intelfpga_lite/23.1std/nios2eds/bin/gnu/h-x86_64-mingw32/bin/../lib/gcc/nios2-elf/12.3.1/../../../../../H-x86_64-mingw32/nios2-elf/lib/mhw-mulx\libc.a(libc_a-locale.o) (__ascii_wctomb)
c:/intelfpga_lite/23.1std/nios2eds/bin/gnu/h-x86_64-mingw32/bin/../lib/gcc/nios2-elf/12.3.1/../../../../../H-x86_64-mingw32/nios2-elf/lib/mhw-mulx\libc.a(libc_a-wcrtomb.o)
                              c:/intelfpga_lite/23.1std/nios2eds/bin/gnu/h-x86_64-mingw32/bin/../lib/gcc/nios2-elf/12.3.1/../../../../../H-x86_64-mingw32/nios2-elf/lib/mhw-mulx\libc.a(libc_a-fputwc.o) (_wcrtomb_r)
c:/intelfpga_lite/23.1std/nios2eds/bin/gnu/h-x86_64-mingw32/bin/../lib/gcc/nios2-elf/12.3.1/../../../../../H-x86_64-mingw32/nios2-elf/lib/mhw-mulx\libc.a(libc_a-ctype_.o)
                              c:/intelfpga_lite/23.1std/nios2eds/bin/gnu/h-x86_64-mingw32/bin/../lib/gcc/nios2-elf/12.3.1/../../../../../H-x86_64-mingw32/nios2-elf/lib/mhw-mulx\libc.a(libc_a-locale.o) (_ctype_b)
c:/intelfpga_lite/23.1std/nios2eds/bin/gnu/h-x86_64-mingw32/bin/../lib/gcc/nios2-elf/12.3.1/../../../../../H-x86_64-mingw32/nios2-elf/lib/mhw-mulx\libc.a(libc_a-fclose.o)
                              c:/intelfpga_lite/23.1std/nios2eds/bin/gnu/h-x86_64-mingw32/bin/../lib/gcc/nios2-elf/12.3.1/../../../../../H-x86_64-mingw32/nios2-elf/lib/mhw-mulx\libc.a(libc_a-findfp.o) (_fclose_r)
c:/intelfpga_lite/23.1std/nios2eds/bin/gnu/h-x86_64-mingw32/bin/../lib/gcc/nios2-elf/12.3.1/../../../../../H-x86_64-mingw32/nios2-elf/lib/mhw-mulx\libc.a(libc_a-makebuf.o)
                              c:/intelfpga_lite/23.1std/nios2eds/bin/gnu/h-x86_64-mingw32/bin/../lib/gcc/nios2-elf/12.3.1/../../../../../H-x86_64-mingw32/nios2-elf/lib/mhw-mulx\libc.a(libc_a-wsetup.o) (__smakebuf_r)
c:/intelfpga_lite/23.1std/nios2eds/bin/gnu/h-x86_64-mingw32/bin/../lib/gcc/nios2-elf/12.3.1/../../../../../H-x86_64-mingw32/nios2-elf/lib/mhw-mulx\libc.a(libc_a-wbuf.o)
                              c:/intelfpga_lite/23.1std/nios2eds/bin/gnu/h-x86_64-mingw32/bin/../lib/gcc/nios2-elf/12.3.1/../../../../../H-x86_64-mingw32/nios2-elf/lib/mhw-mulx\libc.a(libc_a-fputwc.o) (__swbuf_r)
c:/intelfpga_lite/23.1std/nios2eds/bin/gnu/h-x86_64-mingw32/bin/../lib/gcc/nios2-elf/12.3.1/../../../../../H-x86_64-mingw32/nios2-elf/lib/mhw-mulx\libc.a(libc_a-strcmp.o)
                              c:/intelfpga_lite/23.1std/nios2eds/bin/gnu/h-x86_64-mingw32/bin/../lib/gcc/nios2-elf/12.3.1/../../../../../H-x86_64-mingw32/nios2-elf/lib/mhw-mulx\libc.a(libc_a-locale.o) (strcmp)
c:/intelfpga_lite/23.1std/nios2eds/bin/gnu/h-x86_64-mingw32/bin/../lib/gcc/nios2-elf/12.3.1/../../../../../H-x86_64-mingw32/nios2-elf/lib/mhw-mulx\libc.a(libc_a-fstatr.o)
                              c:/intelfpga_lite/23.1std/nios2eds/bin/gnu/h-x86_64-mingw32/bin/../lib/gcc/nios2-elf/12.3.1/../../../../../H-x86_64-mingw32/nios2-elf/lib/mhw-mulx\libc.a(libc_a-makebuf.o) (_fstat_r)
c:/intelfpga_lite/23.1std/nios2eds/bin/gnu/h-x86_64-mingw32/bin/../lib/gcc/nios2-elf/12.3.1/../../../../../H-x86_64-mingw32/nios2-elf/lib/mhw-mulx\libc.a(libc_a-isattyr.o)
                              c:/intelfpga_lite/23.1std/nios2eds/bin/gnu/h-x86_64-mingw32/bin/../lib/gcc/nios2-elf/12.3.1/../../../../../H-x86_64-mingw32/nios2-elf/lib/mhw-mulx\libc.a(libc_a-makebuf.o) (_isatty_r)
c:/intelfpga_lite/23.1std/nios2eds/bin/gnu/h-x86_64-mingw32/bin/../lib/gcc/nios2-elf/12.3.1/../../../../../H-x86_64-mingw32/nios2-elf/lib/mhw-mulx\libc.a(libc_a-sbrkr.o)
                              c:/intelfpga_lite/23.1std/nios2eds/bin/gnu/h-x86_64-mingw32/bin/../lib/gcc/nios2-elf/12.3.1/../../../../../H-x86_64-mingw32/nios2-elf/lib/mhw-mulx\libc.a(libc_a-freer.o) (_sbrk_r)
c:/intelfpga_lite/23.1std/nios2eds/bin/gnu/h-x86_64-mingw32/bin/../lib/gcc/nios2-elf/12.3.1/../../../../../H-x86_64-mingw32/nios2-elf/lib/mhw-mulx\libc.a(libc_a-__call_atexit.o)
                              c:/intelfpga_lite/23.1std/nios2eds/bin/gnu/h-x86_64-mingw32/bin/../lib/gcc/nios2-elf/12.3.1/../../../../../H-x86_64-mingw32/nios2-elf/lib/mhw-mulx\libc.a(libc_a-exit.o) (__call_exitprocs)
c:/intelfpga_lite/23.1std/nios2eds/bin/gnu/h-x86_64-mingw32/bin/../lib/gcc/nios2-elf/12.3.1/../../../../../H-x86_64-mingw32/nios2-elf/lib/mhw-mulx\libc.a(libc_a-assert.o)
                              c:/intelfpga_lite/23.1std/nios2eds/bin/gnu/h-x86_64-mingw32/bin/../lib/gcc/nios2-elf/12.3.1/../../../../../H-x86_64-mingw32/nios2-elf/lib/mhw-mulx\libc.a(libc_a-dtoa.o) (__assert_func)
c:/intelfpga_lite/23.1std/nios2eds/bin/gnu/h-x86_64-mingw32/bin/../lib/gcc/nios2-elf/12.3.1/../../../../../H-x86_64-mingw32/nios2-elf/lib/mhw-mulx\libc.a(libc_a-callocr.o)
                              c:/intelfpga_lite/23.1std/nios2eds/bin/gnu/h-x86_64-mingw32/bin/../lib/gcc/nios2-elf/12.3.1/../../../../../H-x86_64-mingw32/nios2-elf/lib/mhw-mulx\libc.a(libc_a-mprec.o) (_calloc_r)
c:/intelfpga_lite/23.1std/nios2eds/bin/gnu/h-x86_64-mingw32/bin/../lib/gcc/nios2-elf/12.3.1/../../../../../H-x86_64-mingw32/nios2-elf/lib/mhw-mulx\libc.a(libc_a-fiprintf.o)
                              c:/intelfpga_lite/23.1std/nios2eds/bin/gnu/h-x86_64-mingw32/bin/../lib/gcc/nios2-elf/12.3.1/../../../../../H-x86_64-mingw32/nios2-elf/lib/mhw-mulx\libc.a(libc_a-assert.o) (fiprintf)
c:/intelfpga_lite/23.1std/nios2eds/bin/gnu/h-x86_64-mingw32/bin/../lib/gcc/nios2-elf/12.3.1/../../../../../H-x86_64-mingw32/nios2-elf/lib/mhw-mulx\libc.a(libc_a-vfiprintfr_1.o)
                              c:/intelfpga_lite/23.1std/nios2eds/bin/gnu/h-x86_64-mingw32/bin/../lib/gcc/nios2-elf/12.3.1/../../../../../H-x86_64-mingw32/nios2-elf/lib/mhw-mulx\libc.a(libc_a-fiprintf.o) (_vfiprintf_r)
c:/intelfpga_lite/23.1std/nios2eds/bin/gnu/h-x86_64-mingw32/bin/../lib/gcc/nios2-elf/12.3.1/../../../../../H-x86_64-mingw32/nios2-elf/lib/mhw-mulx\libc.a(libc_a-errno.o)
                              c:/intelfpga_lite/23.1std/nios2eds/bin/gnu/h-x86_64-mingw32/bin/../lib/gcc/nios2-elf/12.3.1/../../../../../H-x86_64-mingw32/nios2-elf/lib/mhw-mulx\libc.a(libc_a-callocr.o) (__errno)
c:/intelfpga_lite/23.1std/nios2eds/bin/gnu/h-x86_64-mingw32/bin/../lib/gcc/nios2-elf/12.3.1/../../../../../H-x86_64-mingw32/nios2-elf/lib/mhw-mulx\libc.a(libc_a-abort.o)
                              c:/intelfpga_lite/23.1std/nios2eds/bin/gnu/h-x86_64-mingw32/bin/../lib/gcc/nios2-elf/12.3.1/../../../../../H-x86_64-mingw32/nios2-elf/lib/mhw-mulx\libc.a(libc_a-assert.o) (abort)
c:/intelfpga_lite/23.1std/nios2eds/bin/gnu/h-x86_64-mingw32/bin/../lib/gcc/nios2-elf/12.3.1/../../../../../H-x86_64-mingw32/nios2-elf/lib/mhw-mulx\libc.a(libc_a-signal.o)
                              c:/intelfpga_lite/23.1std/nios2eds/bin/gnu/h-x86_64-mingw32/bin/../lib/gcc/nios2-elf/12.3.1/../../../../../H-x86_64-mingw32/nios2-elf/lib/mhw-mulx\libc.a(libc_a-abort.o) (raise)
c:/intelfpga_lite/23.1std/nios2eds/bin/gnu/h-x86_64-mingw32/bin/../lib/gcc/nios2-elf/12.3.1/../../../../../H-x86_64-mingw32/nios2-elf/lib/mhw-mulx\libc.a(libc_a-signalr.o)
                              c:/intelfpga_lite/23.1std/nios2eds/bin/gnu/h-x86_64-mingw32/bin/../lib/gcc/nios2-elf/12.3.1/../../../../../H-x86_64-mingw32/nios2-elf/lib/mhw-mulx\libc.a(libc_a-signal.o) (_kill_r)
c:/intelfpga_lite/23.1std/nios2eds/bin/gnu/h-x86_64-mingw32/bin/../lib/gcc/nios2-elf/12.3.1/mhw-mulx\libgcc.a(_udivdi3.o)
                              c:/intelfpga_lite/23.1std/nios2eds/bin/gnu/h-x86_64-mingw32/bin/../lib/gcc/nios2-elf/12.3.1/../../../../../H-x86_64-mingw32/nios2-elf/lib/mhw-mulx\libc.a(libc_a-vfprintf.o) (__udivdi3)
c:/intelfpga_lite/23.1std/nios2eds/bin/gnu/h-x86_64-mingw32/bin/../lib/gcc/nios2-elf/12.3.1/mhw-mulx\libgcc.a(_umoddi3.o)
                              c:/intelfpga_lite/23.1std/nios2eds/bin/gnu/h-x86_64-mingw32/bin/../lib/gcc/nios2-elf/12.3.1/../../../../../H-x86_64-mingw32/nios2-elf/lib/mhw-mulx\libc.a(libc_a-vfprintf.o) (__umoddi3)
c:/intelfpga_lite/23.1std/nios2eds/bin/gnu/h-x86_64-mingw32/bin/../lib/gcc/nios2-elf/12.3.1/mhw-mulx\libgcc.a(lib2-divmod.o)
                              c:/intelfpga_lite/23.1std/nios2eds/bin/gnu/h-x86_64-mingw32/bin/../lib/gcc/nios2-elf/12.3.1/../../../../../H-x86_64-mingw32/nios2-elf/lib/mhw-mulx\libc.a(libc_a-vfprintf.o) (__divsi3)
c:/intelfpga_lite/23.1std/nios2eds/bin/gnu/h-x86_64-mingw32/bin/../lib/gcc/nios2-elf/12.3.1/mhw-mulx\libgcc.a(adddf3.o)
                              c:/intelfpga_lite/23.1std/nios2eds/bin/gnu/h-x86_64-mingw32/bin/../lib/gcc/nios2-elf/12.3.1/../../../../../H-x86_64-mingw32/nios2-elf/lib/mhw-mulx\libc.a(libc_a-dtoa.o) (__adddf3)
c:/intelfpga_lite/23.1std/nios2eds/bin/gnu/h-x86_64-mingw32/bin/../lib/gcc/nios2-elf/12.3.1/mhw-mulx\libgcc.a(divdf3.o)
                              c:/intelfpga_lite/23.1std/nios2eds/bin/gnu/h-x86_64-mingw32/bin/../lib/gcc/nios2-elf/12.3.1/../../../../../H-x86_64-mingw32/nios2-elf/lib/mhw-mulx\libc.a(libc_a-dtoa.o) (__divdf3)
c:/intelfpga_lite/23.1std/nios2eds/bin/gnu/h-x86_64-mingw32/bin/../lib/gcc/nios2-elf/12.3.1/mhw-mulx\libgcc.a(eqdf2.o)
                              c:/intelfpga_lite/23.1std/nios2eds/bin/gnu/h-x86_64-mingw32/bin/../lib/gcc/nios2-elf/12.3.1/../../../../../H-x86_64-mingw32/nios2-elf/lib/mhw-mulx\libc.a(libc_a-vfprintf.o) (__eqdf2)
c:/intelfpga_lite/23.1std/nios2eds/bin/gnu/h-x86_64-mingw32/bin/../lib/gcc/nios2-elf/12.3.1/mhw-mulx\libgcc.a(gedf2.o)
                              c:/intelfpga_lite/23.1std/nios2eds/bin/gnu/h-x86_64-mingw32/bin/../lib/gcc/nios2-elf/12.3.1/../../../../../H-x86_64-mingw32/nios2-elf/lib/mhw-mulx\libc.a(libc_a-dtoa.o) (__gtdf2)
c:/intelfpga_lite/23.1std/nios2eds/bin/gnu/h-x86_64-mingw32/bin/../lib/gcc/nios2-elf/12.3.1/mhw-mulx\libgcc.a(ledf2.o)
                              c:/intelfpga_lite/23.1std/nios2eds/bin/gnu/h-x86_64-mingw32/bin/../lib/gcc/nios2-elf/12.3.1/../../../../../H-x86_64-mingw32/nios2-elf/lib/mhw-mulx\libc.a(libc_a-vfprintf.o) (__ledf2)
c:/intelfpga_lite/23.1std/nios2eds/bin/gnu/h-x86_64-mingw32/bin/../lib/gcc/nios2-elf/12.3.1/mhw-mulx\libgcc.a(muldf3.o)
                              c:/intelfpga_lite/23.1std/nios2eds/bin/gnu/h-x86_64-mingw32/bin/../lib/gcc/nios2-elf/12.3.1/../../../../../H-x86_64-mingw32/nios2-elf/lib/mhw-mulx\libc.a(libc_a-dtoa.o) (__muldf3)
c:/intelfpga_lite/23.1std/nios2eds/bin/gnu/h-x86_64-mingw32/bin/../lib/gcc/nios2-elf/12.3.1/mhw-mulx\libgcc.a(subdf3.o)
                              c:/intelfpga_lite/23.1std/nios2eds/bin/gnu/h-x86_64-mingw32/bin/../lib/gcc/nios2-elf/12.3.1/../../../../../H-x86_64-mingw32/nios2-elf/lib/mhw-mulx\libc.a(libc_a-dtoa.o) (__subdf3)
c:/intelfpga_lite/23.1std/nios2eds/bin/gnu/h-x86_64-mingw32/bin/../lib/gcc/nios2-elf/12.3.1/mhw-mulx\libgcc.a(unorddf2.o)
                              c:/intelfpga_lite/23.1std/nios2eds/bin/gnu/h-x86_64-mingw32/bin/../lib/gcc/nios2-elf/12.3.1/../../../../../H-x86_64-mingw32/nios2-elf/lib/mhw-mulx\libc.a(libc_a-vfprintf.o) (__unorddf2)
c:/intelfpga_lite/23.1std/nios2eds/bin/gnu/h-x86_64-mingw32/bin/../lib/gcc/nios2-elf/12.3.1/mhw-mulx\libgcc.a(fixdfsi.o)
                              c:/intelfpga_lite/23.1std/nios2eds/bin/gnu/h-x86_64-mingw32/bin/../lib/gcc/nios2-elf/12.3.1/../../../../../H-x86_64-mingw32/nios2-elf/lib/mhw-mulx\libc.a(libc_a-dtoa.o) (__fixdfsi)
c:/intelfpga_lite/23.1std/nios2eds/bin/gnu/h-x86_64-mingw32/bin/../lib/gcc/nios2-elf/12.3.1/mhw-mulx\libgcc.a(floatsidf.o)
                              c:/intelfpga_lite/23.1std/nios2eds/bin/gnu/h-x86_64-mingw32/bin/../lib/gcc/nios2-elf/12.3.1/../../../../../H-x86_64-mingw32/nios2-elf/lib/mhw-mulx\libc.a(libc_a-dtoa.o) (__floatsidf)
c:/intelfpga_lite/23.1std/nios2eds/bin/gnu/h-x86_64-mingw32/bin/../lib/gcc/nios2-elf/12.3.1/mhw-mulx\libgcc.a(floatunsidf.o)
                              c:/intelfpga_lite/23.1std/nios2eds/bin/gnu/h-x86_64-mingw32/bin/../lib/gcc/nios2-elf/12.3.1/../../../../../H-x86_64-mingw32/nios2-elf/lib/mhw-mulx\libc.a(libc_a-dtoa.o) (__floatunsidf)
c:/Users/Galileo/Projects/ELEC60011-fpga/system_template_de1_soc/software/hello_world2_bsp/\libhal_bsp.a(alt_close.o)
                              c:/intelfpga_lite/23.1std/nios2eds/bin/gnu/h-x86_64-mingw32/bin/../lib/gcc/nios2-elf/12.3.1/../../../../../H-x86_64-mingw32/nios2-elf/lib/mhw-mulx\libc.a(libc_a-closer.o) (close)
c:/Users/Galileo/Projects/ELEC60011-fpga/system_template_de1_soc/software/hello_world2_bsp/\libhal_bsp.a(alt_dev.o)
                              c:/Users/Galileo/Projects/ELEC60011-fpga/system_template_de1_soc/software/hello_world2_bsp/\libhal_bsp.a(alt_close.o) (alt_fd_list)
c:/Users/Galileo/Projects/ELEC60011-fpga/system_template_de1_soc/software/hello_world2_bsp/\libhal_bsp.a(alt_errno.o)
                              c:/Users/Galileo/Projects/ELEC60011-fpga/system_template_de1_soc/software/hello_world2_bsp/\libhal_bsp.a(alt_close.o) (alt_errno)
c:/Users/Galileo/Projects/ELEC60011-fpga/system_template_de1_soc/software/hello_world2_bsp/\libhal_bsp.a(alt_exit.o)
                              c:/intelfpga_lite/23.1std/nios2eds/bin/gnu/h-x86_64-mingw32/bin/../lib/gcc/nios2-elf/12.3.1/../../../../../H-x86_64-mingw32/nios2-elf/lib/mhw-mulx\libc.a(libc_a-exit.o) (_exit)
c:/Users/Galileo/Projects/ELEC60011-fpga/system_template_de1_soc/software/hello_world2_bsp/\libhal_bsp.a(alt_fstat.o)
                              c:/intelfpga_lite/23.1std/nios2eds/bin/gnu/h-x86_64-mingw32/bin/../lib/gcc/nios2-elf/12.3.1/../../../../../H-x86_64-mingw32/nios2-elf/lib/mhw-mulx\libc.a(libc_a-fstatr.o) (fstat)
c:/Users/Galileo/Projects/ELEC60011-fpga/system_template_de1_soc/software/hello_world2_bsp/\libhal_bsp.a(alt_getpid.o)
                              c:/intelfpga_lite/23.1std/nios2eds/bin/gnu/h-x86_64-mingw32/bin/../lib/gcc/nios2-elf/12.3.1/../../../../../H-x86_64-mingw32/nios2-elf/lib/mhw-mulx\libc.a(libc_a-signalr.o) (getpid)
c:/Users/Galileo/Projects/ELEC60011-fpga/system_template_de1_soc/software/hello_world2_bsp/\libhal_bsp.a(alt_isatty.o)
                              c:/intelfpga_lite/23.1std/nios2eds/bin/gnu/h-x86_64-mingw32/bin/../lib/gcc/nios2-elf/12.3.1/../../../../../H-x86_64-mingw32/nios2-elf/lib/mhw-mulx\libc.a(libc_a-isattyr.o) (isatty)
c:/Users/Galileo/Projects/ELEC60011-fpga/system_template_de1_soc/software/hello_world2_bsp/\libhal_bsp.a(alt_kill.o)
                              c:/intelfpga_lite/23.1std/nios2eds/bin/gnu/h-x86_64-mingw32/bin/../lib/gcc/nios2-elf/12.3.1/../../../../../H-x86_64-mingw32/nios2-elf/lib/mhw-mulx\libc.a(libc_a-signalr.o) (kill)
c:/Users/Galileo/Projects/ELEC60011-fpga/system_template_de1_soc/software/hello_world2_bsp/\libhal_bsp.a(alt_load.o)
                              c:/Users/Galileo/Projects/ELEC60011-fpga/system_template_de1_soc/software/hello_world2_bsp//obj/HAL/src/crt0.o (alt_load)
c:/Users/Galileo/Projects/ELEC60011-fpga/system_template_de1_soc/software/hello_world2_bsp/\libhal_bsp.a(alt_lseek.o)
                              c:/intelfpga_lite/23.1std/nios2eds/bin/gnu/h-x86_64-mingw32/bin/../lib/gcc/nios2-elf/12.3.1/../../../../../H-x86_64-mingw32/nios2-elf/lib/mhw-mulx\libc.a(libc_a-lseekr.o) (lseek)
c:/Users/Galileo/Projects/ELEC60011-fpga/system_template_de1_soc/software/hello_world2_bsp/\libhal_bsp.a(alt_main.o)
                              c:/Users/Galileo/Projects/ELEC60011-fpga/system_template_de1_soc/software/hello_world2_bsp//obj/HAL/src/crt0.o (alt_main)
c:/Users/Galileo/Projects/ELEC60011-fpga/system_template_de1_soc/software/hello_world2_bsp/\libhal_bsp.a(alt_malloc_lock.o)
                              c:/intelfpga_lite/23.1std/nios2eds/bin/gnu/h-x86_64-mingw32/bin/../lib/gcc/nios2-elf/12.3.1/../../../../../H-x86_64-mingw32/nios2-elf/lib/mhw-mulx\libc.a(libc_a-freer.o) (__malloc_lock)
c:/Users/Galileo/Projects/ELEC60011-fpga/system_template_de1_soc/software/hello_world2_bsp/\libhal_bsp.a(alt_read.o)
                              c:/intelfpga_lite/23.1std/nios2eds/bin/gnu/h-x86_64-mingw32/bin/../lib/gcc/nios2-elf/12.3.1/../../../../../H-x86_64-mingw32/nios2-elf/lib/mhw-mulx\libc.a(libc_a-readr.o) (read)
c:/Users/Galileo/Projects/ELEC60011-fpga/system_template_de1_soc/software/hello_world2_bsp/\libhal_bsp.a(alt_release_fd.o)
                              c:/Users/Galileo/Projects/ELEC60011-fpga/system_template_de1_soc/software/hello_world2_bsp/\libhal_bsp.a(alt_close.o) (alt_release_fd)
c:/Users/Galileo/Projects/ELEC60011-fpga/system_template_de1_soc/software/hello_world2_bsp/\libhal_bsp.a(alt_sbrk.o)
                              c:/intelfpga_lite/23.1std/nios2eds/bin/gnu/h-x86_64-mingw32/bin/../lib/gcc/nios2-elf/12.3.1/../../../../../H-x86_64-mingw32/nios2-elf/lib/mhw-mulx\libc.a(libc_a-sbrkr.o) (sbrk)
c:/Users/Galileo/Projects/ELEC60011-fpga/system_template_de1_soc/software/hello_world2_bsp/\libhal_bsp.a(alt_times.o)
                              obj/default/hello_world.o (times)
c:/Users/Galileo/Projects/ELEC60011-fpga/system_template_de1_soc/software/hello_world2_bsp/\libhal_bsp.a(alt_write.o)
                              c:/intelfpga_lite/23.1std/nios2eds/bin/gnu/h-x86_64-mingw32/bin/../lib/gcc/nios2-elf/12.3.1/../../../../../H-x86_64-mingw32/nios2-elf/lib/mhw-mulx\libc.a(libc_a-writer.o) (write)
c:/Users/Galileo/Projects/ELEC60011-fpga/system_template_de1_soc/software/hello_world2_bsp/\libhal_bsp.a(alt_sys_init.o)
                              c:/Users/Galileo/Projects/ELEC60011-fpga/system_template_de1_soc/software/hello_world2_bsp/\libhal_bsp.a(alt_main.o) (alt_irq_init)
c:/Users/Galileo/Projects/ELEC60011-fpga/system_template_de1_soc/software/hello_world2_bsp/\libhal_bsp.a(altera_avalon_jtag_uart_fd.o)
                              c:/Users/Galileo/Projects/ELEC60011-fpga/system_template_de1_soc/software/hello_world2_bsp/\libhal_bsp.a(alt_sys_init.o) (altera_avalon_jtag_uart_read_fd)
c:/Users/Galileo/Projects/ELEC60011-fpga/system_template_de1_soc/software/hello_world2_bsp/\libhal_bsp.a(altera_avalon_jtag_uart_read.o)
                              c:/Users/Galileo/Projects/ELEC60011-fpga/system_template_de1_soc/software/hello_world2_bsp/\libhal_bsp.a(altera_avalon_jtag_uart_fd.o) (altera_avalon_jtag_uart_read)
c:/Users/Galileo/Projects/ELEC60011-fpga/system_template_de1_soc/software/hello_world2_bsp/\libhal_bsp.a(altera_avalon_jtag_uart_write.o)
                              c:/Users/Galileo/Projects/ELEC60011-fpga/system_template_de1_soc/software/hello_world2_bsp/\libhal_bsp.a(altera_avalon_jtag_uart_fd.o) (altera_avalon_jtag_uart_write)
c:/Users/Galileo/Projects/ELEC60011-fpga/system_template_de1_soc/software/hello_world2_bsp/\libhal_bsp.a(altera_avalon_timer_sc.o)
                              c:/Users/Galileo/Projects/ELEC60011-fpga/system_template_de1_soc/software/hello_world2_bsp/\libhal_bsp.a(alt_sys_init.o) (alt_avalon_timer_sc_init)
c:/Users/Galileo/Projects/ELEC60011-fpga/system_template_de1_soc/software/hello_world2_bsp/\libhal_bsp.a(alt_dcache_flush_all.o)
                              c:/Users/Galileo/Projects/ELEC60011-fpga/system_template_de1_soc/software/hello_world2_bsp/\libhal_bsp.a(alt_load.o) (alt_dcache_flush_all)
c:/Users/Galileo/Projects/ELEC60011-fpga/system_template_de1_soc/software/hello_world2_bsp/\libhal_bsp.a(alt_dev_llist_insert.o)
                              c:/Users/Galileo/Projects/ELEC60011-fpga/system_template_de1_soc/software/hello_world2_bsp/\libhal_bsp.a(alt_sys_init.o) (alt_dev_llist_insert)
c:/Users/Galileo/Projects/ELEC60011-fpga/system_template_de1_soc/software/hello_world2_bsp/\libhal_bsp.a(alt_icache_flush_all.o)
                              c:/Users/Galileo/Projects/ELEC60011-fpga/system_template_de1_soc/software/hello_world2_bsp/\libhal_bsp.a(alt_load.o) (alt_icache_flush_all)
c:/Users/Galileo/Projects/ELEC60011-fpga/system_template_de1_soc/software/hello_world2_bsp/\libhal_bsp.a(alt_iic.o)
                              c:/Users/Galileo/Projects/ELEC60011-fpga/system_template_de1_soc/software/hello_world2_bsp/\libhal_bsp.a(altera_avalon_timer_sc.o) (alt_ic_isr_register)
c:/Users/Galileo/Projects/ELEC60011-fpga/system_template_de1_soc/software/hello_world2_bsp/\libhal_bsp.a(alt_iic_isr_register.o)
                              c:/Users/Galileo/Projects/ELEC60011-fpga/system_template_de1_soc/software/hello_world2_bsp/\libhal_bsp.a(alt_iic.o) (alt_iic_isr_register)
c:/Users/Galileo/Projects/ELEC60011-fpga/system_template_de1_soc/software/hello_world2_bsp/\libhal_bsp.a(alt_io_redirect.o)
                              c:/Users/Galileo/Projects/ELEC60011-fpga/system_template_de1_soc/software/hello_world2_bsp/\libhal_bsp.a(alt_main.o) (alt_io_redirect)
c:/Users/Galileo/Projects/ELEC60011-fpga/system_template_de1_soc/software/hello_world2_bsp/\libhal_bsp.a(alt_irq_entry.o)
                              c:/Users/Galileo/Projects/ELEC60011-fpga/system_template_de1_soc/software/hello_world2_bsp/\libhal_bsp.a(alt_iic_isr_register.o) (alt_irq_entry)
c:/Users/Galileo/Projects/ELEC60011-fpga/system_template_de1_soc/software/hello_world2_bsp/\libhal_bsp.a(alt_irq_handler.o)
                              c:/Users/Galileo/Projects/ELEC60011-fpga/system_template_de1_soc/software/hello_world2_bsp/\libhal_bsp.a(alt_iic_isr_register.o) (alt_irq)
c:/Users/Galileo/Projects/ELEC60011-fpga/system_template_de1_soc/software/hello_world2_bsp/\libhal_bsp.a(alt_irq_vars.o)
                              c:/Users/Galileo/Projects/ELEC60011-fpga/system_template_de1_soc/software/hello_world2_bsp/\libhal_bsp.a(alt_iic.o) (alt_irq_active)
c:/Users/Galileo/Projects/ELEC60011-fpga/system_template_de1_soc/software/hello_world2_bsp/\libhal_bsp.a(alt_open.o)
                              c:/Users/Galileo/Projects/ELEC60011-fpga/system_template_de1_soc/software/hello_world2_bsp/\libhal_bsp.a(alt_io_redirect.o) (open)
c:/Users/Galileo/Projects/ELEC60011-fpga/system_template_de1_soc/software/hello_world2_bsp/\libhal_bsp.a(alt_tick.o)
                              c:/Users/Galileo/Projects/ELEC60011-fpga/system_template_de1_soc/software/hello_world2_bsp/\libhal_bsp.a(alt_times.o) (_alt_tick_rate)
c:/Users/Galileo/Projects/ELEC60011-fpga/system_template_de1_soc/software/hello_world2_bsp/\libhal_bsp.a(altera_nios2_gen2_irq.o)
                              c:/Users/Galileo/Projects/ELEC60011-fpga/system_template_de1_soc/software/hello_world2_bsp/\libhal_bsp.a(alt_sys_init.o) (altera_nios2_gen2_irq_init)
c:/Users/Galileo/Projects/ELEC60011-fpga/system_template_de1_soc/software/hello_world2_bsp/\libhal_bsp.a(alt_exception_entry.o)
                              c:/Users/Galileo/Projects/ELEC60011-fpga/system_template_de1_soc/software/hello_world2_bsp/\libhal_bsp.a(alt_irq_entry.o) (alt_exception)
c:/Users/Galileo/Projects/ELEC60011-fpga/system_template_de1_soc/software/hello_world2_bsp/\libhal_bsp.a(alt_find_dev.o)
                              c:/Users/Galileo/Projects/ELEC60011-fpga/system_template_de1_soc/software/hello_world2_bsp/\libhal_bsp.a(alt_open.o) (alt_find_dev)
c:/Users/Galileo/Projects/ELEC60011-fpga/system_template_de1_soc/software/hello_world2_bsp/\libhal_bsp.a(alt_find_file.o)
                              c:/Users/Galileo/Projects/ELEC60011-fpga/system_template_de1_soc/software/hello_world2_bsp/\libhal_bsp.a(alt_open.o) (alt_find_file)
c:/Users/Galileo/Projects/ELEC60011-fpga/system_template_de1_soc/software/hello_world2_bsp/\libhal_bsp.a(alt_get_fd.o)
                              c:/Users/Galileo/Projects/ELEC60011-fpga/system_template_de1_soc/software/hello_world2_bsp/\libhal_bsp.a(alt_open.o) (alt_get_fd)
c:/Users/Galileo/Projects/ELEC60011-fpga/system_template_de1_soc/software/hello_world2_bsp/\libhal_bsp.a(alt_icache_flush.o)
                              c:/Users/Galileo/Projects/ELEC60011-fpga/system_template_de1_soc/software/hello_world2_bsp/\libhal_bsp.a(alt_icache_flush_all.o) (alt_icache_flush)
c:/Users/Galileo/Projects/ELEC60011-fpga/system_template_de1_soc/software/hello_world2_bsp/\libhal_bsp.a(alt_instruction_exception_entry.o)
                              c:/Users/Galileo/Projects/ELEC60011-fpga/system_template_de1_soc/software/hello_world2_bsp/\libhal_bsp.a(alt_exception_entry.o) (alt_instruction_exception_entry)
c:/intelfpga_lite/23.1std/nios2eds/bin/gnu/h-x86_64-mingw32/bin/../lib/gcc/nios2-elf/12.3.1/../../../../../H-x86_64-mingw32/nios2-elf/lib/mhw-mulx\libc.a(libc_a-memcmp.o)
                              c:/Users/Galileo/Projects/ELEC60011-fpga/system_template_de1_soc/software/hello_world2_bsp/\libhal_bsp.a(alt_find_dev.o) (memcmp)

Memory Configuration

Name             Origin             Length             Attributes
reset            0x00080000         0x00000020
onchip_mem       0x00080020         0x0005efe0
*default*        0x00000000         0xffffffff

Linker script and memory map

LOAD c:/Users/Galileo/Projects/ELEC60011-fpga/system_template_de1_soc/software/hello_world2_bsp//obj/HAL/src/crt0.o
LOAD obj/default/hello_world.o
LOAD c:/intelfpga_lite/23.1std/nios2eds/bin/gnu/h-x86_64-mingw32/bin/../lib/gcc/nios2-elf/12.3.1/../../../../../H-x86_64-mingw32/nios2-elf/lib/mhw-mulx\libstdc++.a
LOAD c:/intelfpga_lite/23.1std/nios2eds/bin/gnu/h-x86_64-mingw32/bin/../lib/gcc/nios2-elf/12.3.1/../../../../../H-x86_64-mingw32/nios2-elf/lib/mhw-mulx\libm.a
LOAD c:/intelfpga_lite/23.1std/nios2eds/bin/gnu/h-x86_64-mingw32/bin/../lib/gcc/nios2-elf/12.3.1/mhw-mulx\libgcc.a
START GROUP
LOAD c:/intelfpga_lite/23.1std/nios2eds/bin/gnu/h-x86_64-mingw32/bin/../lib/gcc/nios2-elf/12.3.1/../../../../../H-x86_64-mingw32/nios2-elf/lib/mhw-mulx\libc.a
LOAD c:/intelfpga_lite/23.1std/nios2eds/bin/gnu/h-x86_64-mingw32/bin/../lib/gcc/nios2-elf/12.3.1/mhw-mulx\libgcc.a
LOAD c:/Users/Galileo/Projects/ELEC60011-fpga/system_template_de1_soc/software/hello_world2_bsp/\libhal_bsp.a
LOAD c:/intelfpga_lite/23.1std/nios2eds/bin/gnu/h-x86_64-mingw32/bin/../lib/gcc/nios2-elf/12.3.1/../../../../../H-x86_64-mingw32/nios2-elf/lib/mhw-mulx\libm.a
END GROUP
LOAD c:/intelfpga_lite/23.1std/nios2eds/bin/gnu/h-x86_64-mingw32/bin/../lib/gcc/nios2-elf/12.3.1/mhw-mulx\libgcc.a
                0x00080000                        __alt_mem_onchip_mem = 0x80000

.entry          0x00080000       0x20
 *(.entry)
 .entry         0x00080000       0x20 c:/Users/Galileo/Projects/ELEC60011-fpga/system_template_de1_soc/software/hello_world2_bsp//obj/HAL/src/crt0.o
                0x00080000                __reset

.exceptions     0x00080020      0x218
                0x00080020                        PROVIDE (__ram_exceptions_start = ABSOLUTE (.))
                0x00080020                        . = ALIGN (0x20)
 *(.irq)
 *(.exceptions.entry.label)
 .exceptions.entry.label
                0x00080020        0x0 c:/Users/Galileo/Projects/ELEC60011-fpga/system_template_de1_soc/software/hello_world2_bsp/\libhal_bsp.a(alt_irq_entry.o)
                0x00080020                alt_irq_entry
 .exceptions.entry.label
                0x00080020        0x0 c:/Users/Galileo/Projects/ELEC60011-fpga/system_template_de1_soc/software/hello_world2_bsp/\libhal_bsp.a(alt_exception_entry.o)
                0x00080020                alt_exception
 *(.exceptions.entry.user)
 *(.exceptions.entry.ecc_fatal)
 *(.exceptions.entry)
 .exceptions.entry
                0x00080020       0x54 c:/Users/Galileo/Projects/ELEC60011-fpga/system_template_de1_soc/software/hello_world2_bsp/\libhal_bsp.a(alt_exception_entry.o)
 *(.exceptions.irqtest.user)
 *(.exceptions.irqtest)
 .exceptions.irqtest
                0x00080074       0x10 c:/Users/Galileo/Projects/ELEC60011-fpga/system_template_de1_soc/software/hello_world2_bsp/\libhal_bsp.a(alt_irq_entry.o)
 *(.exceptions.irqhandler.user)
 *(.exceptions.irqhandler)
 .exceptions.irqhandler
                0x00080084        0x4 c:/Users/Galileo/Projects/ELEC60011-fpga/system_template_de1_soc/software/hello_world2_bsp/\libhal_bsp.a(alt_irq_entry.o)
 *(.exceptions.irqreturn.user)
 *(.exceptions.irqreturn)
 .exceptions.irqreturn
                0x00080088        0x4 c:/Users/Galileo/Projects/ELEC60011-fpga/system_template_de1_soc/software/hello_world2_bsp/\libhal_bsp.a(alt_irq_entry.o)
 *(.exceptions.notirq.label)
 .exceptions.notirq.label
                0x0008008c        0x0 c:/Users/Galileo/Projects/ELEC60011-fpga/system_template_de1_soc/software/hello_world2_bsp/\libhal_bsp.a(alt_irq_entry.o)
 *(.exceptions.notirq.user)
 *(.exceptions.notirq)
 .exceptions.notirq
                0x0008008c        0x8 c:/Users/Galileo/Projects/ELEC60011-fpga/system_template_de1_soc/software/hello_world2_bsp/\libhal_bsp.a(alt_exception_entry.o)
 *(.exceptions.soft.user)
 *(.exceptions.soft)
 *(.exceptions.unknown.user)
 *(.exceptions.unknown)
 .exceptions.unknown
                0x00080094       0x14 c:/Users/Galileo/Projects/ELEC60011-fpga/system_template_de1_soc/software/hello_world2_bsp/\libhal_bsp.a(alt_exception_entry.o)
 *(.exceptions.exit.label)
 .exceptions.exit.label
                0x000800a8        0x0 c:/Users/Galileo/Projects/ELEC60011-fpga/system_template_de1_soc/software/hello_world2_bsp/\libhal_bsp.a(alt_irq_entry.o)
 .exceptions.exit.label
                0x000800a8        0x0 c:/Users/Galileo/Projects/ELEC60011-fpga/system_template_de1_soc/software/hello_world2_bsp/\libhal_bsp.a(alt_exception_entry.o)
 *(.exceptions.exit.user)
 *(.exceptions.exit)
 .exceptions.exit
                0x000800a8       0x54 c:/Users/Galileo/Projects/ELEC60011-fpga/system_template_de1_soc/software/hello_world2_bsp/\libhal_bsp.a(alt_exception_entry.o)
 *(.exceptions)
 .exceptions    0x000800fc       0xc8 c:/Users/Galileo/Projects/ELEC60011-fpga/system_template_de1_soc/software/hello_world2_bsp/\libhal_bsp.a(alt_irq_handler.o)
                0x000800fc                alt_irq_handler
 .exceptions    0x000801c4       0x74 c:/Users/Galileo/Projects/ELEC60011-fpga/system_template_de1_soc/software/hello_world2_bsp/\libhal_bsp.a(alt_instruction_exception_entry.o)
                0x000801c4                alt_instruction_exception_entry
                0x00080238                        PROVIDE (__ram_exceptions_end = ABSOLUTE (.))
                0x00080020                        PROVIDE (__flash_exceptions_start = LOADADDR (.exceptions))

.text           0x00080238    0x11b88
                [!provide]                        PROVIDE (stext = ABSOLUTE (.))
 *(.interp)
 *(.hash)
 *(.dynsym)
 *(.dynstr)
 *(.gnu.version)
 *(.gnu.version_d)
 *(.gnu.version_r)
 *(.rel.init)
 *(.rela.init)
 *(.rel.text .rel.text.* .rel.gnu.linkonce.t.*)
 *(.rela.text .rela.text.* .rela.gnu.linkonce.t.*)
 *(.rel.fini)
 *(.rela.fini)
 *(.rel.rodata .rel.rodata.* .rel.gnu.linkonce.r.*)
 *(.rela.rodata .rela.rodata.* .rela.gnu.linkonce.r.*)
 *(.rel.data .rel.data.* .rel.gnu.linkonce.d.*)
 *(.rela.data .rela.data.* .rela.gnu.linkonce.d.*)
 *(.rel.tdata .rel.tdata.* .rel.gnu.linkonce.td.*)
 *(.rela.tdata .rela.tdata.* .rela.gnu.linkonce.td.*)
 *(.rel.tbss .rel.tbss.* .rel.gnu.linkonce.tb.*)
 *(.rela.tbss .rela.tbss.* .rela.gnu.linkonce.tb.*)
 *(.rel.ctors)
 *(.rela.ctors)
 *(.rel.dtors)
 *(.rela.dtors)
 *(.rel.got)
 *(.rela.got)
 *(.rel.sdata .rel.sdata.* .rel.gnu.linkonce.s.*)
 *(.rela.sdata .rela.sdata.* .rela.gnu.linkonce.s.*)
 *(.rel.sbss .rel.sbss.* .rel.gnu.linkonce.sb.*)
 *(.rela.sbss .rela.sbss.* .rela.gnu.linkonce.sb.*)
 *(.rel.sdata2 .rel.sdata2.* .rel.gnu.linkonce.s2.*)
 *(.rela.sdata2 .rela.sdata2.* .rela.gnu.linkonce.s2.*)
 *(.rel.sbss2 .rel.sbss2.* .rel.gnu.linkonce.sb2.*)
 *(.rela.sbss2 .rela.sbss2.* .rela.gnu.linkonce.sb2.*)
 *(.rel.bss .rel.bss.* .rel.gnu.linkonce.b.*)
 *(.rela.bss .rela.bss.* .rela.gnu.linkonce.b.*)
 *(.rel.plt)
 *(.rela.plt)
 *(.rel.dyn)
 *(.init)
 *(.plt)
 *(.text .stub .text.* .gnu.linkonce.t.*)
 .text          0x00080238       0x4c c:/Users/Galileo/Projects/ELEC60011-fpga/system_template_de1_soc/software/hello_world2_bsp//obj/HAL/src/crt0.o
                0x00080238                _start
 .text          0x00080284      0x3b8 obj/default/hello_world.o
                0x00080284                generateRandomVector
                0x00080330                generateVector
                0x000803d8                sumVector
                0x00080548                main
 .text          0x0008063c        0x0 c:/intelfpga_lite/23.1std/nios2eds/bin/gnu/h-x86_64-mingw32/bin/../lib/gcc/nios2-elf/12.3.1/../../../../../H-x86_64-mingw32/nios2-elf/lib/mhw-mulx\libm.a(libm_a-sf_cos.o)
 .text.cosf     0x0008063c       0xb0 c:/intelfpga_lite/23.1std/nios2eds/bin/gnu/h-x86_64-mingw32/bin/../lib/gcc/nios2-elf/12.3.1/../../../../../H-x86_64-mingw32/nios2-elf/lib/mhw-mulx\libm.a(libm_a-sf_cos.o)
                0x0008063c                cosf
 .text          0x000806ec        0x0 c:/intelfpga_lite/23.1std/nios2eds/bin/gnu/h-x86_64-mingw32/bin/../lib/gcc/nios2-elf/12.3.1/../../../../../H-x86_64-mingw32/nios2-elf/lib/mhw-mulx\libm.a(libm_a-kf_cos.o)
 .text.__kernel_cosf
                0x000806ec      0x1c0 c:/intelfpga_lite/23.1std/nios2eds/bin/gnu/h-x86_64-mingw32/bin/../lib/gcc/nios2-elf/12.3.1/../../../../../H-x86_64-mingw32/nios2-elf/lib/mhw-mulx\libm.a(libm_a-kf_cos.o)
                0x000806ec                __kernel_cosf
 .text          0x000808ac        0x0 c:/intelfpga_lite/23.1std/nios2eds/bin/gnu/h-x86_64-mingw32/bin/../lib/gcc/nios2-elf/12.3.1/../../../../../H-x86_64-mingw32/nios2-elf/lib/mhw-mulx\libm.a(libm_a-kf_sin.o)
 .text.__kernel_sinf
                0x000808ac      0x1b4 c:/intelfpga_lite/23.1std/nios2eds/bin/gnu/h-x86_64-mingw32/bin/../lib/gcc/nios2-elf/12.3.1/../../../../../H-x86_64-mingw32/nios2-elf/lib/mhw-mulx\libm.a(libm_a-kf_sin.o)
                0x000808ac                __kernel_sinf
 .text          0x00080a60        0x0 c:/intelfpga_lite/23.1std/nios2eds/bin/gnu/h-x86_64-mingw32/bin/../lib/gcc/nios2-elf/12.3.1/../../../../../H-x86_64-mingw32/nios2-elf/lib/mhw-mulx\libm.a(libm_a-ef_rem_pio2.o)
 .text.__ieee754_rem_pio2f
                0x00080a60      0x4f0 c:/intelfpga_lite/23.1std/nios2eds/bin/gnu/h-x86_64-mingw32/bin/../lib/gcc/nios2-elf/12.3.1/../../../../../H-x86_64-mingw32/nios2-elf/lib/mhw-mulx\libm.a(libm_a-ef_rem_pio2.o)
                0x00080a60                __ieee754_rem_pio2f
 .text          0x00080f50        0x0 c:/intelfpga_lite/23.1std/nios2eds/bin/gnu/h-x86_64-mingw32/bin/../lib/gcc/nios2-elf/12.3.1/../../../../../H-x86_64-mingw32/nios2-elf/lib/mhw-mulx\libm.a(libm_a-sf_fabs.o)
 .text.fabsf    0x00080f50       0x10 c:/intelfpga_lite/23.1std/nios2eds/bin/gnu/h-x86_64-mingw32/bin/../lib/gcc/nios2-elf/12.3.1/../../../../../H-x86_64-mingw32/nios2-elf/lib/mhw-mulx\libm.a(libm_a-sf_fabs.o)
                0x00080f50                fabsf
 .text          0x00080f60        0x0 c:/intelfpga_lite/23.1std/nios2eds/bin/gnu/h-x86_64-mingw32/bin/../lib/gcc/nios2-elf/12.3.1/../../../../../H-x86_64-mingw32/nios2-elf/lib/mhw-mulx\libm.a(libm_a-kf_rem_pio2.o)
 .text.__kernel_rem_pio2f
                0x00080f60      0x928 c:/intelfpga_lite/23.1std/nios2eds/bin/gnu/h-x86_64-mingw32/bin/../lib/gcc/nios2-elf/12.3.1/../../../../../H-x86_64-mingw32/nios2-elf/lib/mhw-mulx\libm.a(libm_a-kf_rem_pio2.o)
                0x00080f60                __kernel_rem_pio2f
 .text          0x00081888        0x0 c:/intelfpga_lite/23.1std/nios2eds/bin/gnu/h-x86_64-mingw32/bin/../lib/gcc/nios2-elf/12.3.1/../../../../../H-x86_64-mingw32/nios2-elf/lib/mhw-mulx\libm.a(libm_a-sf_floor.o)
 .text.floorf   0x00081888       0xf0 c:/intelfpga_lite/23.1std/nios2eds/bin/gnu/h-x86_64-mingw32/bin/../lib/gcc/nios2-elf/12.3.1/../../../../../H-x86_64-mingw32/nios2-elf/lib/mhw-mulx\libm.a(libm_a-sf_floor.o)
                0x00081888                floorf
 .text          0x00081978        0x0 c:/intelfpga_lite/23.1std/nios2eds/bin/gnu/h-x86_64-mingw32/bin/../lib/gcc/nios2-elf/12.3.1/../../../../../H-x86_64-mingw32/nios2-elf/lib/mhw-mulx\libm.a(libm_a-sf_scalbn.o)
 .text.scalbnf  0x00081978      0x120 c:/intelfpga_lite/23.1std/nios2eds/bin/gnu/h-x86_64-mingw32/bin/../lib/gcc/nios2-elf/12.3.1/../../../../../H-x86_64-mingw32/nios2-elf/lib/mhw-mulx\libm.a(libm_a-sf_scalbn.o)
                0x00081978                scalbnf
 .text          0x00081a98      0x494 c:/intelfpga_lite/23.1std/nios2eds/bin/gnu/h-x86_64-mingw32/bin/../lib/gcc/nios2-elf/12.3.1/mhw-mulx\libgcc.a(addsf3.o)
                0x00081a98                __addsf3
 .text          0x00081f2c      0x418 c:/intelfpga_lite/23.1std/nios2eds/bin/gnu/h-x86_64-mingw32/bin/../lib/gcc/nios2-elf/12.3.1/mhw-mulx\libgcc.a(divsf3.o)
                0x00081f2c                __divsf3
 .text          0x00082344       0x78 c:/intelfpga_lite/23.1std/nios2eds/bin/gnu/h-x86_64-mingw32/bin/../lib/gcc/nios2-elf/12.3.1/mhw-mulx\libgcc.a(eqsf2.o)
                0x00082344                __eqsf2
                0x00082344                __nesf2
 .text          0x000823bc       0xd4 c:/intelfpga_lite/23.1std/nios2eds/bin/gnu/h-x86_64-mingw32/bin/../lib/gcc/nios2-elf/12.3.1/mhw-mulx\libgcc.a(gesf2.o)
                0x000823bc                __gesf2
                0x000823bc                __gtsf2
 .text          0x00082490      0x3e8 c:/intelfpga_lite/23.1std/nios2eds/bin/gnu/h-x86_64-mingw32/bin/../lib/gcc/nios2-elf/12.3.1/mhw-mulx\libgcc.a(mulsf3.o)
                0x00082490                __mulsf3
 .text          0x00082878      0x524 c:/intelfpga_lite/23.1std/nios2eds/bin/gnu/h-x86_64-mingw32/bin/../lib/gcc/nios2-elf/12.3.1/mhw-mulx\libgcc.a(subsf3.o)
                0x00082878                __subsf3
 .text          0x00082d9c       0x70 c:/intelfpga_lite/23.1std/nios2eds/bin/gnu/h-x86_64-mingw32/bin/../lib/gcc/nios2-elf/12.3.1/mhw-mulx\libgcc.a(fixsfsi.o)
                0x00082d9c                __fixsfsi
 .text          0x00082e0c      0x128 c:/intelfpga_lite/23.1std/nios2eds/bin/gnu/h-x86_64-mingw32/bin/../lib/gcc/nios2-elf/12.3.1/mhw-mulx\libgcc.a(floatsisf.o)
                0x00082e0c                __floatsisf
 .text          0x00082f34       0x50 c:/intelfpga_lite/23.1std/nios2eds/bin/gnu/h-x86_64-mingw32/bin/../lib/gcc/nios2-elf/12.3.1/mhw-mulx\libgcc.a(_clzsi2.o)
                0x00082f34                __clzsi2
 .text          0x00082f84        0x0 c:/intelfpga_lite/23.1std/nios2eds/bin/gnu/h-x86_64-mingw32/bin/../lib/gcc/nios2-elf/12.3.1/mhw-mulx\libgcc.a(_clz.o)
 .text          0x00082f84        0x0 c:/intelfpga_lite/23.1std/nios2eds/bin/gnu/h-x86_64-mingw32/bin/../lib/gcc/nios2-elf/12.3.1/../../../../../H-x86_64-mingw32/nios2-elf/lib/mhw-mulx\libc.a(libc_a-rand.o)
 .text.srand    0x00082f84       0x14 c:/intelfpga_lite/23.1std/nios2eds/bin/gnu/h-x86_64-mingw32/bin/../lib/gcc/nios2-elf/12.3.1/../../../../../H-x86_64-mingw32/nios2-elf/lib/mhw-mulx\libc.a(libc_a-rand.o)
                0x00082f84                srand
 .text.rand     0x00082f98       0x5c c:/intelfpga_lite/23.1std/nios2eds/bin/gnu/h-x86_64-mingw32/bin/../lib/gcc/nios2-elf/12.3.1/../../../../../H-x86_64-mingw32/nios2-elf/lib/mhw-mulx\libc.a(libc_a-rand.o)
                0x00082f98                rand
 .text          0x00082ff4        0x0 c:/intelfpga_lite/23.1std/nios2eds/bin/gnu/h-x86_64-mingw32/bin/../lib/gcc/nios2-elf/12.3.1/../../../../../H-x86_64-mingw32/nios2-elf/lib/mhw-mulx\libc.a(libc_a-printf.o)
 .text._printf_r
                0x00082ff4       0x30 c:/intelfpga_lite/23.1std/nios2eds/bin/gnu/h-x86_64-mingw32/bin/../lib/gcc/nios2-elf/12.3.1/../../../../../H-x86_64-mingw32/nios2-elf/lib/mhw-mulx\libc.a(libc_a-printf.o)
                0x00082ff4                _printf_r
 .text.printf   0x00083024       0x38 c:/intelfpga_lite/23.1std/nios2eds/bin/gnu/h-x86_64-mingw32/bin/../lib/gcc/nios2-elf/12.3.1/../../../../../H-x86_64-mingw32/nios2-elf/lib/mhw-mulx\libc.a(libc_a-printf.o)
                0x00083024                printf
 .text          0x0008305c        0x0 c:/intelfpga_lite/23.1std/nios2eds/bin/gnu/h-x86_64-mingw32/bin/../lib/gcc/nios2-elf/12.3.1/../../../../../H-x86_64-mingw32/nios2-elf/lib/mhw-mulx\libc.a(libc_a-puts.o)
 .text._puts_r  0x0008305c       0xd0 c:/intelfpga_lite/23.1std/nios2eds/bin/gnu/h-x86_64-mingw32/bin/../lib/gcc/nios2-elf/12.3.1/../../../../../H-x86_64-mingw32/nios2-elf/lib/mhw-mulx\libc.a(libc_a-puts.o)
                0x0008305c                _puts_r
 .text.puts     0x0008312c       0x10 c:/intelfpga_lite/23.1std/nios2eds/bin/gnu/h-x86_64-mingw32/bin/../lib/gcc/nios2-elf/12.3.1/../../../../../H-x86_64-mingw32/nios2-elf/lib/mhw-mulx\libc.a(libc_a-puts.o)
                0x0008312c                puts
 .text          0x0008313c        0x0 c:/intelfpga_lite/23.1std/nios2eds/bin/gnu/h-x86_64-mingw32/bin/../lib/gcc/nios2-elf/12.3.1/../../../../../H-x86_64-mingw32/nios2-elf/lib/mhw-mulx\libc.a(libc_a-strlen.o)
 .text.strlen   0x0008313c       0x98 c:/intelfpga_lite/23.1std/nios2eds/bin/gnu/h-x86_64-mingw32/bin/../lib/gcc/nios2-elf/12.3.1/../../../../../H-x86_64-mingw32/nios2-elf/lib/mhw-mulx\libc.a(libc_a-strlen.o)
                0x0008313c                strlen
 .text          0x000831d4        0x0 c:/intelfpga_lite/23.1std/nios2eds/bin/gnu/h-x86_64-mingw32/bin/../lib/gcc/nios2-elf/12.3.1/../../../../../H-x86_64-mingw32/nios2-elf/lib/mhw-mulx\libc.a(libc_a-impure.o)
 .text          0x000831d4        0x0 c:/intelfpga_lite/23.1std/nios2eds/bin/gnu/h-x86_64-mingw32/bin/../lib/gcc/nios2-elf/12.3.1/../../../../../H-x86_64-mingw32/nios2-elf/lib/mhw-mulx\libc.a(libc_a-vfprintf.o)
 .text.___vfprintf_internal_r
                0x000831d4     0x2300 c:/intelfpga_lite/23.1std/nios2eds/bin/gnu/h-x86_64-mingw32/bin/../lib/gcc/nios2-elf/12.3.1/../../../../../H-x86_64-mingw32/nios2-elf/lib/mhw-mulx\libc.a(libc_a-vfprintf.o)
                0x000831d4                ___vfprintf_internal_r
 .text.__vfprintf_internal
                0x000854d4       0x1c c:/intelfpga_lite/23.1std/nios2eds/bin/gnu/h-x86_64-mingw32/bin/../lib/gcc/nios2-elf/12.3.1/../../../../../H-x86_64-mingw32/nios2-elf/lib/mhw-mulx\libc.a(libc_a-vfprintf.o)
                0x000854d4                __vfprintf_internal
 .text.__sbprintf
                0x000854f0       0xc4 c:/intelfpga_lite/23.1std/nios2eds/bin/gnu/h-x86_64-mingw32/bin/../lib/gcc/nios2-elf/12.3.1/../../../../../H-x86_64-mingw32/nios2-elf/lib/mhw-mulx\libc.a(libc_a-vfprintf.o)
 .text          0x000855b4        0x0 c:/intelfpga_lite/23.1std/nios2eds/bin/gnu/h-x86_64-mingw32/bin/../lib/gcc/nios2-elf/12.3.1/../../../../../H-x86_64-mingw32/nios2-elf/lib/mhw-mulx\libc.a(libc_a-vfiprintf.o)
 .text.__sprint_r.part.0
                0x000855b4       0xf4 c:/intelfpga_lite/23.1std/nios2eds/bin/gnu/h-x86_64-mingw32/bin/../lib/gcc/nios2-elf/12.3.1/../../../../../H-x86_64-mingw32/nios2-elf/lib/mhw-mulx\libc.a(libc_a-vfiprintf.o)
 .text.__sprint_r
                0x000856a8       0x18 c:/intelfpga_lite/23.1std/nios2eds/bin/gnu/h-x86_64-mingw32/bin/../lib/gcc/nios2-elf/12.3.1/../../../../../H-x86_64-mingw32/nios2-elf/lib/mhw-mulx\libc.a(libc_a-vfiprintf.o)
                0x000856a8                __sprint_r
 .text.___vfiprintf_internal_r
                0x000856c0     0x128c c:/intelfpga_lite/23.1std/nios2eds/bin/gnu/h-x86_64-mingw32/bin/../lib/gcc/nios2-elf/12.3.1/../../../../../H-x86_64-mingw32/nios2-elf/lib/mhw-mulx\libc.a(libc_a-vfiprintf.o)
                0x000856c0                ___vfiprintf_internal_r
 .text.__vfiprintf_internal
                0x0008694c       0x1c c:/intelfpga_lite/23.1std/nios2eds/bin/gnu/h-x86_64-mingw32/bin/../lib/gcc/nios2-elf/12.3.1/../../../../../H-x86_64-mingw32/nios2-elf/lib/mhw-mulx\libc.a(libc_a-vfiprintf.o)
                0x0008694c                __vfiprintf_internal
 .text.__sbprintf
                0x00086968       0xc4 c:/intelfpga_lite/23.1std/nios2eds/bin/gnu/h-x86_64-mingw32/bin/../lib/gcc/nios2-elf/12.3.1/../../../../../H-x86_64-mingw32/nios2-elf/lib/mhw-mulx\libc.a(libc_a-vfiprintf.o)
 .text          0x00086a2c        0x0 c:/intelfpga_lite/23.1std/nios2eds/bin/gnu/h-x86_64-mingw32/bin/../lib/gcc/nios2-elf/12.3.1/../../../../../H-x86_64-mingw32/nios2-elf/lib/mhw-mulx\libc.a(libc_a-fflush.o)
 .text.__sflush_r
                0x00086a2c      0x208 c:/intelfpga_lite/23.1std/nios2eds/bin/gnu/h-x86_64-mingw32/bin/../lib/gcc/nios2-elf/12.3.1/../../../../../H-x86_64-mingw32/nios2-elf/lib/mhw-mulx\libc.a(libc_a-fflush.o)
                0x00086a2c                __sflush_r
 .text._fflush_r
                0x00086c34       0x5c c:/intelfpga_lite/23.1std/nios2eds/bin/gnu/h-x86_64-mingw32/bin/../lib/gcc/nios2-elf/12.3.1/../../../../../H-x86_64-mingw32/nios2-elf/lib/mhw-mulx\libc.a(libc_a-fflush.o)
                0x00086c34                _fflush_r
 .text.fflush   0x00086c90       0x8c c:/intelfpga_lite/23.1std/nios2eds/bin/gnu/h-x86_64-mingw32/bin/../lib/gcc/nios2-elf/12.3.1/../../../../../H-x86_64-mingw32/nios2-elf/lib/mhw-mulx\libc.a(libc_a-fflush.o)
                0x00086c90                fflush
 .text          0x00086d1c        0x0 c:/intelfpga_lite/23.1std/nios2eds/bin/gnu/h-x86_64-mingw32/bin/../lib/gcc/nios2-elf/12.3.1/../../../../../H-x86_64-mingw32/nios2-elf/lib/mhw-mulx\libc.a(libc_a-findfp.o)
 .text.__fp_lock
                0x00086d1c        0x8 c:/intelfpga_lite/23.1std/nios2eds/bin/gnu/h-x86_64-mingw32/bin/../lib/gcc/nios2-elf/12.3.1/../../../../../H-x86_64-mingw32/nios2-elf/lib/mhw-mulx\libc.a(libc_a-findfp.o)
 .text.stdio_exit_handler
                0x00086d24       0x1c c:/intelfpga_lite/23.1std/nios2eds/bin/gnu/h-x86_64-mingw32/bin/../lib/gcc/nios2-elf/12.3.1/../../../../../H-x86_64-mingw32/nios2-elf/lib/mhw-mulx\libc.a(libc_a-findfp.o)
 .text.cleanup_stdio
                0x00086d40       0x70 c:/intelfpga_lite/23.1std/nios2eds/bin/gnu/h-x86_64-mingw32/bin/../lib/gcc/nios2-elf/12.3.1/../../../../../H-x86_64-mingw32/nios2-elf/lib/mhw-mulx\libc.a(libc_a-findfp.o)
 .text.__fp_unlock
                0x00086db0        0x8 c:/intelfpga_lite/23.1std/nios2eds/bin/gnu/h-x86_64-mingw32/bin/../lib/gcc/nios2-elf/12.3.1/../../../../../H-x86_64-mingw32/nios2-elf/lib/mhw-mulx\libc.a(libc_a-findfp.o)
 .text.global_stdio_init.part.0
                0x00086db8      0x174 c:/intelfpga_lite/23.1std/nios2eds/bin/gnu/h-x86_64-mingw32/bin/../lib/gcc/nios2-elf/12.3.1/../../../../../H-x86_64-mingw32/nios2-elf/lib/mhw-mulx\libc.a(libc_a-findfp.o)
 .text.__sfp    0x00086f2c      0x120 c:/intelfpga_lite/23.1std/nios2eds/bin/gnu/h-x86_64-mingw32/bin/../lib/gcc/nios2-elf/12.3.1/../../../../../H-x86_64-mingw32/nios2-elf/lib/mhw-mulx\libc.a(libc_a-findfp.o)
                0x00086f2c                __sfp
 .text.__sinit  0x0008704c       0x28 c:/intelfpga_lite/23.1std/nios2eds/bin/gnu/h-x86_64-mingw32/bin/../lib/gcc/nios2-elf/12.3.1/../../../../../H-x86_64-mingw32/nios2-elf/lib/mhw-mulx\libc.a(libc_a-findfp.o)
                0x0008704c                __sinit
 .text.__sfp_lock_acquire
                0x00087074        0x4 c:/intelfpga_lite/23.1std/nios2eds/bin/gnu/h-x86_64-mingw32/bin/../lib/gcc/nios2-elf/12.3.1/../../../../../H-x86_64-mingw32/nios2-elf/lib/mhw-mulx\libc.a(libc_a-findfp.o)
                0x00087074                __sfp_lock_acquire
 .text.__sfp_lock_release
                0x00087078        0x4 c:/intelfpga_lite/23.1std/nios2eds/bin/gnu/h-x86_64-mingw32/bin/../lib/gcc/nios2-elf/12.3.1/../../../../../H-x86_64-mingw32/nios2-elf/lib/mhw-mulx\libc.a(libc_a-findfp.o)
                0x00087078                __sfp_lock_release
 .text.__fp_lock_all
                0x0008707c       0x18 c:/intelfpga_lite/23.1std/nios2eds/bin/gnu/h-x86_64-mingw32/bin/../lib/gcc/nios2-elf/12.3.1/../../../../../H-x86_64-mingw32/nios2-elf/lib/mhw-mulx\libc.a(libc_a-findfp.o)
                0x0008707c                __fp_lock_all
 .text.__fp_unlock_all
                0x00087094       0x18 c:/intelfpga_lite/23.1std/nios2eds/bin/gnu/h-x86_64-mingw32/bin/../lib/gcc/nios2-elf/12.3.1/../../../../../H-x86_64-mingw32/nios2-elf/lib/mhw-mulx\libc.a(libc_a-findfp.o)
                0x00087094                __fp_unlock_all
 .text          0x000870ac        0x0 c:/intelfpga_lite/23.1std/nios2eds/bin/gnu/h-x86_64-mingw32/bin/../lib/gcc/nios2-elf/12.3.1/../../../../../H-x86_64-mingw32/nios2-elf/lib/mhw-mulx\libc.a(libc_a-fvwrite.o)
 .text.__sfvwrite_r
                0x000870ac      0x49c c:/intelfpga_lite/23.1std/nios2eds/bin/gnu/h-x86_64-mingw32/bin/../lib/gcc/nios2-elf/12.3.1/../../../../../H-x86_64-mingw32/nios2-elf/lib/mhw-mulx\libc.a(libc_a-fvwrite.o)
                0x000870ac                __sfvwrite_r
 .text          0x00087548        0x0 c:/intelfpga_lite/23.1std/nios2eds/bin/gnu/h-x86_64-mingw32/bin/../lib/gcc/nios2-elf/12.3.1/../../../../../H-x86_64-mingw32/nios2-elf/lib/mhw-mulx\libc.a(libc_a-fwalk.o)
 .text._fwalk_sglue
                0x00087548       0xa8 c:/intelfpga_lite/23.1std/nios2eds/bin/gnu/h-x86_64-mingw32/bin/../lib/gcc/nios2-elf/12.3.1/../../../../../H-x86_64-mingw32/nios2-elf/lib/mhw-mulx\libc.a(libc_a-fwalk.o)
                0x00087548                _fwalk_sglue
 .text          0x000875f0        0x0 c:/intelfpga_lite/23.1std/nios2eds/bin/gnu/h-x86_64-mingw32/bin/../lib/gcc/nios2-elf/12.3.1/../../../../../H-x86_64-mingw32/nios2-elf/lib/mhw-mulx\libc.a(libc_a-stdio.o)
 .text.__sread  0x000875f0       0x54 c:/intelfpga_lite/23.1std/nios2eds/bin/gnu/h-x86_64-mingw32/bin/../lib/gcc/nios2-elf/12.3.1/../../../../../H-x86_64-mingw32/nios2-elf/lib/mhw-mulx\libc.a(libc_a-stdio.o)
                0x000875f0                __sread
 .text.__seofread
                0x00087644        0x8 c:/intelfpga_lite/23.1std/nios2eds/bin/gnu/h-x86_64-mingw32/bin/../lib/gcc/nios2-elf/12.3.1/../../../../../H-x86_64-mingw32/nios2-elf/lib/mhw-mulx\libc.a(libc_a-stdio.o)
                0x00087644                __seofread
 .text.__swrite
                0x0008764c       0x80 c:/intelfpga_lite/23.1std/nios2eds/bin/gnu/h-x86_64-mingw32/bin/../lib/gcc/nios2-elf/12.3.1/../../../../../H-x86_64-mingw32/nios2-elf/lib/mhw-mulx\libc.a(libc_a-stdio.o)
                0x0008764c                __swrite
 .text.__sseek  0x000876cc       0x5c c:/intelfpga_lite/23.1std/nios2eds/bin/gnu/h-x86_64-mingw32/bin/../lib/gcc/nios2-elf/12.3.1/../../../../../H-x86_64-mingw32/nios2-elf/lib/mhw-mulx\libc.a(libc_a-stdio.o)
                0x000876cc                __sseek
 .text.__sclose
                0x00087728        0x8 c:/intelfpga_lite/23.1std/nios2eds/bin/gnu/h-x86_64-mingw32/bin/../lib/gcc/nios2-elf/12.3.1/../../../../../H-x86_64-mingw32/nios2-elf/lib/mhw-mulx\libc.a(libc_a-stdio.o)
                0x00087728                __sclose
 .text          0x00087730        0x0 c:/intelfpga_lite/23.1std/nios2eds/bin/gnu/h-x86_64-mingw32/bin/../lib/gcc/nios2-elf/12.3.1/../../../../../H-x86_64-mingw32/nios2-elf/lib/mhw-mulx\libc.a(libc_a-wsetup.o)
 .text.__swsetup_r
                0x00087730      0x144 c:/intelfpga_lite/23.1std/nios2eds/bin/gnu/h-x86_64-mingw32/bin/../lib/gcc/nios2-elf/12.3.1/../../../../../H-x86_64-mingw32/nios2-elf/lib/mhw-mulx\libc.a(libc_a-wsetup.o)
                0x00087730                __swsetup_r
 .text          0x00087874        0x0 c:/intelfpga_lite/23.1std/nios2eds/bin/gnu/h-x86_64-mingw32/bin/../lib/gcc/nios2-elf/12.3.1/../../../../../H-x86_64-mingw32/nios2-elf/lib/mhw-mulx\libc.a(libc_a-fputwc.o)
 .text.__fputwc
                0x00087874      0x164 c:/intelfpga_lite/23.1std/nios2eds/bin/gnu/h-x86_64-mingw32/bin/../lib/gcc/nios2-elf/12.3.1/../../../../../H-x86_64-mingw32/nios2-elf/lib/mhw-mulx\libc.a(libc_a-fputwc.o)
                0x00087874                __fputwc
 .text._fputwc_r
                0x000879d8       0x24 c:/intelfpga_lite/23.1std/nios2eds/bin/gnu/h-x86_64-mingw32/bin/../lib/gcc/nios2-elf/12.3.1/../../../../../H-x86_64-mingw32/nios2-elf/lib/mhw-mulx\libc.a(libc_a-fputwc.o)
                0x000879d8                _fputwc_r
 .text.fputwc   0x000879fc       0x78 c:/intelfpga_lite/23.1std/nios2eds/bin/gnu/h-x86_64-mingw32/bin/../lib/gcc/nios2-elf/12.3.1/../../../../../H-x86_64-mingw32/nios2-elf/lib/mhw-mulx\libc.a(libc_a-fputwc.o)
                0x000879fc                fputwc
 .text          0x00087a74        0x0 c:/intelfpga_lite/23.1std/nios2eds/bin/gnu/h-x86_64-mingw32/bin/../lib/gcc/nios2-elf/12.3.1/../../../../../H-x86_64-mingw32/nios2-elf/lib/mhw-mulx\libc.a(libc_a-memchr.o)
 .text.memchr   0x00087a74       0xd0 c:/intelfpga_lite/23.1std/nios2eds/bin/gnu/h-x86_64-mingw32/bin/../lib/gcc/nios2-elf/12.3.1/../../../../../H-x86_64-mingw32/nios2-elf/lib/mhw-mulx\libc.a(libc_a-memchr.o)
                0x00087a74                memchr
 .text          0x00087b44        0x0 c:/intelfpga_lite/23.1std/nios2eds/bin/gnu/h-x86_64-mingw32/bin/../lib/gcc/nios2-elf/12.3.1/../../../../../H-x86_64-mingw32/nios2-elf/lib/mhw-mulx\libc.a(libc_a-memcpy.o)
 .text.memcpy   0x00087b44      0x100 c:/intelfpga_lite/23.1std/nios2eds/bin/gnu/h-x86_64-mingw32/bin/../lib/gcc/nios2-elf/12.3.1/../../../../../H-x86_64-mingw32/nios2-elf/lib/mhw-mulx\libc.a(libc_a-memcpy.o)
                0x00087b44                memcpy
 .text          0x00087c44        0x0 c:/intelfpga_lite/23.1std/nios2eds/bin/gnu/h-x86_64-mingw32/bin/../lib/gcc/nios2-elf/12.3.1/../../../../../H-x86_64-mingw32/nios2-elf/lib/mhw-mulx\libc.a(libc_a-memmove.o)
 .text.memmove  0x00087c44      0x128 c:/intelfpga_lite/23.1std/nios2eds/bin/gnu/h-x86_64-mingw32/bin/../lib/gcc/nios2-elf/12.3.1/../../../../../H-x86_64-mingw32/nios2-elf/lib/mhw-mulx\libc.a(libc_a-memmove.o)
                0x00087c44                memmove
 .text          0x00087d6c        0x0 c:/intelfpga_lite/23.1std/nios2eds/bin/gnu/h-x86_64-mingw32/bin/../lib/gcc/nios2-elf/12.3.1/../../../../../H-x86_64-mingw32/nios2-elf/lib/mhw-mulx\libc.a(libc_a-memset.o)
 .text.memset   0x00087d6c       0xf8 c:/intelfpga_lite/23.1std/nios2eds/bin/gnu/h-x86_64-mingw32/bin/../lib/gcc/nios2-elf/12.3.1/../../../../../H-x86_64-mingw32/nios2-elf/lib/mhw-mulx\libc.a(libc_a-memset.o)
                0x00087d6c                memset
 .text          0x00087e64        0x0 c:/intelfpga_lite/23.1std/nios2eds/bin/gnu/h-x86_64-mingw32/bin/../lib/gcc/nios2-elf/12.3.1/../../../../../H-x86_64-mingw32/nios2-elf/lib/mhw-mulx\libc.a(libc_a-locale.o)
 .text._setlocale_r
                0x00087e64       0x7c c:/intelfpga_lite/23.1std/nios2eds/bin/gnu/h-x86_64-mingw32/bin/../lib/gcc/nios2-elf/12.3.1/../../../../../H-x86_64-mingw32/nios2-elf/lib/mhw-mulx\libc.a(libc_a-locale.o)
                0x00087e64                _setlocale_r
 .text.__locale_mb_cur_max
                0x00087ee0        0xc c:/intelfpga_lite/23.1std/nios2eds/bin/gnu/h-x86_64-mingw32/bin/../lib/gcc/nios2-elf/12.3.1/../../../../../H-x86_64-mingw32/nios2-elf/lib/mhw-mulx\libc.a(libc_a-locale.o)
                0x00087ee0                __locale_mb_cur_max
 .text.setlocale
                0x00087eec       0x7c c:/intelfpga_lite/23.1std/nios2eds/bin/gnu/h-x86_64-mingw32/bin/../lib/gcc/nios2-elf/12.3.1/../../../../../H-x86_64-mingw32/nios2-elf/lib/mhw-mulx\libc.a(libc_a-locale.o)
                0x00087eec                setlocale
 .text          0x00087f68        0x0 c:/intelfpga_lite/23.1std/nios2eds/bin/gnu/h-x86_64-mingw32/bin/../lib/gcc/nios2-elf/12.3.1/../../../../../H-x86_64-mingw32/nios2-elf/lib/mhw-mulx\libc.a(libc_a-localeconv.o)
 .text.__localeconv_l
                0x00087f68        0x8 c:/intelfpga_lite/23.1std/nios2eds/bin/gnu/h-x86_64-mingw32/bin/../lib/gcc/nios2-elf/12.3.1/../../../../../H-x86_64-mingw32/nios2-elf/lib/mhw-mulx\libc.a(libc_a-localeconv.o)
                0x00087f68                __localeconv_l
 .text._localeconv_r
                0x00087f70        0xc c:/intelfpga_lite/23.1std/nios2eds/bin/gnu/h-x86_64-mingw32/bin/../lib/gcc/nios2-elf/12.3.1/../../../../../H-x86_64-mingw32/nios2-elf/lib/mhw-mulx\libc.a(libc_a-localeconv.o)
                0x00087f70                _localeconv_r
 .text.localeconv
                0x00087f7c        0xc c:/intelfpga_lite/23.1std/nios2eds/bin/gnu/h-x86_64-mingw32/bin/../lib/gcc/nios2-elf/12.3.1/../../../../../H-x86_64-mingw32/nios2-elf/lib/mhw-mulx\libc.a(libc_a-localeconv.o)
                0x00087f7c                localeconv
 .text          0x00087f88        0x0 c:/intelfpga_lite/23.1std/nios2eds/bin/gnu/h-x86_64-mingw32/bin/../lib/gcc/nios2-elf/12.3.1/../../../../../H-x86_64-mingw32/nios2-elf/lib/mhw-mulx\libc.a(libc_a-closer.o)
 .text._close_r
                0x00087f88       0x58 c:/intelfpga_lite/23.1std/nios2eds/bin/gnu/h-x86_64-mingw32/bin/../lib/gcc/nios2-elf/12.3.1/../../../../../H-x86_64-mingw32/nios2-elf/lib/mhw-mulx\libc.a(libc_a-closer.o)
                0x00087f88                _close_r
 .text          0x00087fe0        0x0 c:/intelfpga_lite/23.1std/nios2eds/bin/gnu/h-x86_64-mingw32/bin/../lib/gcc/nios2-elf/12.3.1/../../../../../H-x86_64-mingw32/nios2-elf/lib/mhw-mulx\libc.a(libc_a-reent.o)
 .text._reclaim_reent
                0x00087fe0       0xc8 c:/intelfpga_lite/23.1std/nios2eds/bin/gnu/h-x86_64-mingw32/bin/../lib/gcc/nios2-elf/12.3.1/../../../../../H-x86_64-mingw32/nios2-elf/lib/mhw-mulx\libc.a(libc_a-reent.o)
                0x00087fe0                _reclaim_reent
 .text          0x000880a8        0x0 c:/intelfpga_lite/23.1std/nios2eds/bin/gnu/h-x86_64-mingw32/bin/../lib/gcc/nios2-elf/12.3.1/../../../../../H-x86_64-mingw32/nios2-elf/lib/mhw-mulx\libc.a(libc_a-lseekr.o)
 .text._lseek_r
                0x000880a8       0x64 c:/intelfpga_lite/23.1std/nios2eds/bin/gnu/h-x86_64-mingw32/bin/../lib/gcc/nios2-elf/12.3.1/../../../../../H-x86_64-mingw32/nios2-elf/lib/mhw-mulx\libc.a(libc_a-lseekr.o)
                0x000880a8                _lseek_r
 .text          0x0008810c        0x0 c:/intelfpga_lite/23.1std/nios2eds/bin/gnu/h-x86_64-mingw32/bin/../lib/gcc/nios2-elf/12.3.1/../../../../../H-x86_64-mingw32/nios2-elf/lib/mhw-mulx\libc.a(libc_a-readr.o)
 .text._read_r  0x0008810c       0x64 c:/intelfpga_lite/23.1std/nios2eds/bin/gnu/h-x86_64-mingw32/bin/../lib/gcc/nios2-elf/12.3.1/../../../../../H-x86_64-mingw32/nios2-elf/lib/mhw-mulx\libc.a(libc_a-readr.o)
                0x0008810c                _read_r
 .text          0x00088170        0x0 c:/intelfpga_lite/23.1std/nios2eds/bin/gnu/h-x86_64-mingw32/bin/../lib/gcc/nios2-elf/12.3.1/../../../../../H-x86_64-mingw32/nios2-elf/lib/mhw-mulx\libc.a(libc_a-writer.o)
 .text._write_r
                0x00088170       0x64 c:/intelfpga_lite/23.1std/nios2eds/bin/gnu/h-x86_64-mingw32/bin/../lib/gcc/nios2-elf/12.3.1/../../../../../H-x86_64-mingw32/nios2-elf/lib/mhw-mulx\libc.a(libc_a-writer.o)
                0x00088170                _write_r
 .text          0x000881d4        0x0 c:/intelfpga_lite/23.1std/nios2eds/bin/gnu/h-x86_64-mingw32/bin/../lib/gcc/nios2-elf/12.3.1/../../../../../H-x86_64-mingw32/nios2-elf/lib/mhw-mulx\libc.a(libc_a-dtoa.o)
 .text.quorem   0x000881d4      0x1fc c:/intelfpga_lite/23.1std/nios2eds/bin/gnu/h-x86_64-mingw32/bin/../lib/gcc/nios2-elf/12.3.1/../../../../../H-x86_64-mingw32/nios2-elf/lib/mhw-mulx\libc.a(libc_a-dtoa.o)
 .text._dtoa_r  0x000883d0     0x17e8 c:/intelfpga_lite/23.1std/nios2eds/bin/gnu/h-x86_64-mingw32/bin/../lib/gcc/nios2-elf/12.3.1/../../../../../H-x86_64-mingw32/nios2-elf/lib/mhw-mulx\libc.a(libc_a-dtoa.o)
                0x000883d0                _dtoa_r
 .text          0x00089bb8        0x0 c:/intelfpga_lite/23.1std/nios2eds/bin/gnu/h-x86_64-mingw32/bin/../lib/gcc/nios2-elf/12.3.1/../../../../../H-x86_64-mingw32/nios2-elf/lib/mhw-mulx\libc.a(libc_a-exit.o)
 .text.exit     0x00089bb8       0x30 c:/intelfpga_lite/23.1std/nios2eds/bin/gnu/h-x86_64-mingw32/bin/../lib/gcc/nios2-elf/12.3.1/../../../../../H-x86_64-mingw32/nios2-elf/lib/mhw-mulx\libc.a(libc_a-exit.o)
                0x00089bb8                exit
 .text          0x00089be8        0x0 c:/intelfpga_lite/23.1std/nios2eds/bin/gnu/h-x86_64-mingw32/bin/../lib/gcc/nios2-elf/12.3.1/../../../../../H-x86_64-mingw32/nios2-elf/lib/mhw-mulx\libc.a(libc_a-freer.o)
 .text._malloc_trim_r
                0x00089be8      0x124 c:/intelfpga_lite/23.1std/nios2eds/bin/gnu/h-x86_64-mingw32/bin/../lib/gcc/nios2-elf/12.3.1/../../../../../H-x86_64-mingw32/nios2-elf/lib/mhw-mulx\libc.a(libc_a-freer.o)
                0x00089be8                _malloc_trim_r
 .text._free_r  0x00089d0c      0x308 c:/intelfpga_lite/23.1std/nios2eds/bin/gnu/h-x86_64-mingw32/bin/../lib/gcc/nios2-elf/12.3.1/../../../../../H-x86_64-mingw32/nios2-elf/lib/mhw-mulx\libc.a(libc_a-freer.o)
                0x00089d0c                _free_r
 .text          0x0008a014        0x0 c:/intelfpga_lite/23.1std/nios2eds/bin/gnu/h-x86_64-mingw32/bin/../lib/gcc/nios2-elf/12.3.1/../../../../../H-x86_64-mingw32/nios2-elf/lib/mhw-mulx\libc.a(libc_a-mallocr.o)
 .text._malloc_r
                0x0008a014      0x7c8 c:/intelfpga_lite/23.1std/nios2eds/bin/gnu/h-x86_64-mingw32/bin/../lib/gcc/nios2-elf/12.3.1/../../../../../H-x86_64-mingw32/nios2-elf/lib/mhw-mulx\libc.a(libc_a-mallocr.o)
                0x0008a014                _malloc_r
 .text          0x0008a7dc        0x0 c:/intelfpga_lite/23.1std/nios2eds/bin/gnu/h-x86_64-mingw32/bin/../lib/gcc/nios2-elf/12.3.1/../../../../../H-x86_64-mingw32/nios2-elf/lib/mhw-mulx\libc.a(libc_a-mbtowc_r.o)
 .text._mbtowc_r
                0x0008a7dc        0xc c:/intelfpga_lite/23.1std/nios2eds/bin/gnu/h-x86_64-mingw32/bin/../lib/gcc/nios2-elf/12.3.1/../../../../../H-x86_64-mingw32/nios2-elf/lib/mhw-mulx\libc.a(libc_a-mbtowc_r.o)
                0x0008a7dc                _mbtowc_r
 .text.__ascii_mbtowc
                0x0008a7e8       0x44 c:/intelfpga_lite/23.1std/nios2eds/bin/gnu/h-x86_64-mingw32/bin/../lib/gcc/nios2-elf/12.3.1/../../../../../H-x86_64-mingw32/nios2-elf/lib/mhw-mulx\libc.a(libc_a-mbtowc_r.o)
                0x0008a7e8                __ascii_mbtowc
 .text          0x0008a82c        0x0 c:/intelfpga_lite/23.1std/nios2eds/bin/gnu/h-x86_64-mingw32/bin/../lib/gcc/nios2-elf/12.3.1/../../../../../H-x86_64-mingw32/nios2-elf/lib/mhw-mulx\libc.a(libc_a-mprec.o)
 .text._Balloc  0x0008a82c       0xa4 c:/intelfpga_lite/23.1std/nios2eds/bin/gnu/h-x86_64-mingw32/bin/../lib/gcc/nios2-elf/12.3.1/../../../../../H-x86_64-mingw32/nios2-elf/lib/mhw-mulx\libc.a(libc_a-mprec.o)
                0x0008a82c                _Balloc
 .text._Bfree   0x0008a8d0       0x24 c:/intelfpga_lite/23.1std/nios2eds/bin/gnu/h-x86_64-mingw32/bin/../lib/gcc/nios2-elf/12.3.1/../../../../../H-x86_64-mingw32/nios2-elf/lib/mhw-mulx\libc.a(libc_a-mprec.o)
                0x0008a8d0                _Bfree
 .text.__multadd
                0x0008a8f4      0x130 c:/intelfpga_lite/23.1std/nios2eds/bin/gnu/h-x86_64-mingw32/bin/../lib/gcc/nios2-elf/12.3.1/../../../../../H-x86_64-mingw32/nios2-elf/lib/mhw-mulx\libc.a(libc_a-mprec.o)
                0x0008a8f4                __multadd
 .text.__s2b    0x0008aa24      0x138 c:/intelfpga_lite/23.1std/nios2eds/bin/gnu/h-x86_64-mingw32/bin/../lib/gcc/nios2-elf/12.3.1/../../../../../H-x86_64-mingw32/nios2-elf/lib/mhw-mulx\libc.a(libc_a-mprec.o)
                0x0008aa24                __s2b
 .text.__hi0bits
                0x0008ab5c       0x74 c:/intelfpga_lite/23.1std/nios2eds/bin/gnu/h-x86_64-mingw32/bin/../lib/gcc/nios2-elf/12.3.1/../../../../../H-x86_64-mingw32/nios2-elf/lib/mhw-mulx\libc.a(libc_a-mprec.o)
                0x0008ab5c                __hi0bits
 .text.__lo0bits
                0x0008abd0       0xb0 c:/intelfpga_lite/23.1std/nios2eds/bin/gnu/h-x86_64-mingw32/bin/../lib/gcc/nios2-elf/12.3.1/../../../../../H-x86_64-mingw32/nios2-elf/lib/mhw-mulx\libc.a(libc_a-mprec.o)
                0x0008abd0                __lo0bits
 .text.__i2b    0x0008ac80       0xb0 c:/intelfpga_lite/23.1std/nios2eds/bin/gnu/h-x86_64-mingw32/bin/../lib/gcc/nios2-elf/12.3.1/../../../../../H-x86_64-mingw32/nios2-elf/lib/mhw-mulx\libc.a(libc_a-mprec.o)
                0x0008ac80                __i2b
 .text.__multiply
                0x0008ad30      0x22c c:/intelfpga_lite/23.1std/nios2eds/bin/gnu/h-x86_64-mingw32/bin/../lib/gcc/nios2-elf/12.3.1/../../../../../H-x86_64-mingw32/nios2-elf/lib/mhw-mulx\libc.a(libc_a-mprec.o)
                0x0008ad30                __multiply
 .text.__pow5mult
                0x0008af5c      0x140 c:/intelfpga_lite/23.1std/nios2eds/bin/gnu/h-x86_64-mingw32/bin/../lib/gcc/nios2-elf/12.3.1/../../../../../H-x86_64-mingw32/nios2-elf/lib/mhw-mulx\libc.a(libc_a-mprec.o)
                0x0008af5c                __pow5mult
 .text.__lshift
                0x0008b09c      0x188 c:/intelfpga_lite/23.1std/nios2eds/bin/gnu/h-x86_64-mingw32/bin/../lib/gcc/nios2-elf/12.3.1/../../../../../H-x86_64-mingw32/nios2-elf/lib/mhw-mulx\libc.a(libc_a-mprec.o)
                0x0008b09c                __lshift
 .text.__mcmp   0x0008b224       0x58 c:/intelfpga_lite/23.1std/nios2eds/bin/gnu/h-x86_64-mingw32/bin/../lib/gcc/nios2-elf/12.3.1/../../../../../H-x86_64-mingw32/nios2-elf/lib/mhw-mulx\libc.a(libc_a-mprec.o)
                0x0008b224                __mcmp
 .text.__mdiff  0x0008b27c      0x230 c:/intelfpga_lite/23.1std/nios2eds/bin/gnu/h-x86_64-mingw32/bin/../lib/gcc/nios2-elf/12.3.1/../../../../../H-x86_64-mingw32/nios2-elf/lib/mhw-mulx\libc.a(libc_a-mprec.o)
                0x0008b27c                __mdiff
 .text.__ulp    0x0008b4ac       0x60 c:/intelfpga_lite/23.1std/nios2eds/bin/gnu/h-x86_64-mingw32/bin/../lib/gcc/nios2-elf/12.3.1/../../../../../H-x86_64-mingw32/nios2-elf/lib/mhw-mulx\libc.a(libc_a-mprec.o)
                0x0008b4ac                __ulp
 .text.__b2d    0x0008b50c      0x100 c:/intelfpga_lite/23.1std/nios2eds/bin/gnu/h-x86_64-mingw32/bin/../lib/gcc/nios2-elf/12.3.1/../../../../../H-x86_64-mingw32/nios2-elf/lib/mhw-mulx\libc.a(libc_a-mprec.o)
                0x0008b50c                __b2d
 .text.__d2b    0x0008b60c      0x158 c:/intelfpga_lite/23.1std/nios2eds/bin/gnu/h-x86_64-mingw32/bin/../lib/gcc/nios2-elf/12.3.1/../../../../../H-x86_64-mingw32/nios2-elf/lib/mhw-mulx\libc.a(libc_a-mprec.o)
                0x0008b60c                __d2b
 .text.__ratio  0x0008b764       0xa8 c:/intelfpga_lite/23.1std/nios2eds/bin/gnu/h-x86_64-mingw32/bin/../lib/gcc/nios2-elf/12.3.1/../../../../../H-x86_64-mingw32/nios2-elf/lib/mhw-mulx\libc.a(libc_a-mprec.o)
                0x0008b764                __ratio
 .text._mprec_log10
                0x0008b80c       0x70 c:/intelfpga_lite/23.1std/nios2eds/bin/gnu/h-x86_64-mingw32/bin/../lib/gcc/nios2-elf/12.3.1/../../../../../H-x86_64-mingw32/nios2-elf/lib/mhw-mulx\libc.a(libc_a-mprec.o)
                0x0008b80c                _mprec_log10
 .text.__copybits
                0x0008b87c       0x6c c:/intelfpga_lite/23.1std/nios2eds/bin/gnu/h-x86_64-mingw32/bin/../lib/gcc/nios2-elf/12.3.1/../../../../../H-x86_64-mingw32/nios2-elf/lib/mhw-mulx\libc.a(libc_a-mprec.o)
                0x0008b87c                __copybits
 .text.__any_on
                0x0008b8e8       0x60 c:/intelfpga_lite/23.1std/nios2eds/bin/gnu/h-x86_64-mingw32/bin/../lib/gcc/nios2-elf/12.3.1/../../../../../H-x86_64-mingw32/nios2-elf/lib/mhw-mulx\libc.a(libc_a-mprec.o)
                0x0008b8e8                __any_on
 .text          0x0008b948        0x0 c:/intelfpga_lite/23.1std/nios2eds/bin/gnu/h-x86_64-mingw32/bin/../lib/gcc/nios2-elf/12.3.1/../../../../../H-x86_64-mingw32/nios2-elf/lib/mhw-mulx\libc.a(libc_a-reallocr.o)
 .text._realloc_r
                0x0008b948      0x5ec c:/intelfpga_lite/23.1std/nios2eds/bin/gnu/h-x86_64-mingw32/bin/../lib/gcc/nios2-elf/12.3.1/../../../../../H-x86_64-mingw32/nios2-elf/lib/mhw-mulx\libc.a(libc_a-reallocr.o)
                0x0008b948                _realloc_r
 .text          0x0008bf34        0x0 c:/intelfpga_lite/23.1std/nios2eds/bin/gnu/h-x86_64-mingw32/bin/../lib/gcc/nios2-elf/12.3.1/../../../../../H-x86_64-mingw32/nios2-elf/lib/mhw-mulx\libc.a(libc_a-wctomb_r.o)
 .text._wctomb_r
                0x0008bf34        0xc c:/intelfpga_lite/23.1std/nios2eds/bin/gnu/h-x86_64-mingw32/bin/../lib/gcc/nios2-elf/12.3.1/../../../../../H-x86_64-mingw32/nios2-elf/lib/mhw-mulx\libc.a(libc_a-wctomb_r.o)
                0x0008bf34                _wctomb_r
 .text.__ascii_wctomb
                0x0008bf40       0x30 c:/intelfpga_lite/23.1std/nios2eds/bin/gnu/h-x86_64-mingw32/bin/../lib/gcc/nios2-elf/12.3.1/../../../../../H-x86_64-mingw32/nios2-elf/lib/mhw-mulx\libc.a(libc_a-wctomb_r.o)
                0x0008bf40                __ascii_wctomb
 .text          0x0008bf70        0x0 c:/intelfpga_lite/23.1std/nios2eds/bin/gnu/h-x86_64-mingw32/bin/../lib/gcc/nios2-elf/12.3.1/../../../../../H-x86_64-mingw32/nios2-elf/lib/mhw-mulx\libc.a(libc_a-wcrtomb.o)
 .text._wcrtomb_r
                0x0008bf70       0x6c c:/intelfpga_lite/23.1std/nios2eds/bin/gnu/h-x86_64-mingw32/bin/../lib/gcc/nios2-elf/12.3.1/../../../../../H-x86_64-mingw32/nios2-elf/lib/mhw-mulx\libc.a(libc_a-wcrtomb.o)
                0x0008bf70                _wcrtomb_r
 .text.wcrtomb  0x0008bfdc       0x88 c:/intelfpga_lite/23.1std/nios2eds/bin/gnu/h-x86_64-mingw32/bin/../lib/gcc/nios2-elf/12.3.1/../../../../../H-x86_64-mingw32/nios2-elf/lib/mhw-mulx\libc.a(libc_a-wcrtomb.o)
                0x0008bfdc                wcrtomb
 .text          0x0008c064        0x0 c:/intelfpga_lite/23.1std/nios2eds/bin/gnu/h-x86_64-mingw32/bin/../lib/gcc/nios2-elf/12.3.1/../../../../../H-x86_64-mingw32/nios2-elf/lib/mhw-mulx\libc.a(libc_a-ctype_.o)
 .text          0x0008c064        0x0 c:/intelfpga_lite/23.1std/nios2eds/bin/gnu/h-x86_64-mingw32/bin/../lib/gcc/nios2-elf/12.3.1/../../../../../H-x86_64-mingw32/nios2-elf/lib/mhw-mulx\libc.a(libc_a-fclose.o)
 .text._fclose_r
                0x0008c064       0xf0 c:/intelfpga_lite/23.1std/nios2eds/bin/gnu/h-x86_64-mingw32/bin/../lib/gcc/nios2-elf/12.3.1/../../../../../H-x86_64-mingw32/nios2-elf/lib/mhw-mulx\libc.a(libc_a-fclose.o)
                0x0008c064                _fclose_r
 .text.fclose   0x0008c154       0x10 c:/intelfpga_lite/23.1std/nios2eds/bin/gnu/h-x86_64-mingw32/bin/../lib/gcc/nios2-elf/12.3.1/../../../../../H-x86_64-mingw32/nios2-elf/lib/mhw-mulx\libc.a(libc_a-fclose.o)
                0x0008c154                fclose
 .text          0x0008c164        0x0 c:/intelfpga_lite/23.1std/nios2eds/bin/gnu/h-x86_64-mingw32/bin/../lib/gcc/nios2-elf/12.3.1/../../../../../H-x86_64-mingw32/nios2-elf/lib/mhw-mulx\libc.a(libc_a-makebuf.o)
 .text.__smakebuf_r
                0x0008c164      0x1a8 c:/intelfpga_lite/23.1std/nios2eds/bin/gnu/h-x86_64-mingw32/bin/../lib/gcc/nios2-elf/12.3.1/../../../../../H-x86_64-mingw32/nios2-elf/lib/mhw-mulx\libc.a(libc_a-makebuf.o)
                0x0008c164                __smakebuf_r
 .text.__swhatbuf_r
                0x0008c30c       0x8c c:/intelfpga_lite/23.1std/nios2eds/bin/gnu/h-x86_64-mingw32/bin/../lib/gcc/nios2-elf/12.3.1/../../../../../H-x86_64-mingw32/nios2-elf/lib/mhw-mulx\libc.a(libc_a-makebuf.o)
                0x0008c30c                __swhatbuf_r
 .text          0x0008c398        0x0 c:/intelfpga_lite/23.1std/nios2eds/bin/gnu/h-x86_64-mingw32/bin/../lib/gcc/nios2-elf/12.3.1/../../../../../H-x86_64-mingw32/nios2-elf/lib/mhw-mulx\libc.a(libc_a-wbuf.o)
 .text.__swbuf_r
                0x0008c398      0x148 c:/intelfpga_lite/23.1std/nios2eds/bin/gnu/h-x86_64-mingw32/bin/../lib/gcc/nios2-elf/12.3.1/../../../../../H-x86_64-mingw32/nios2-elf/lib/mhw-mulx\libc.a(libc_a-wbuf.o)
                0x0008c398                __swbuf_r
 .text.__swbuf  0x0008c4e0       0x18 c:/intelfpga_lite/23.1std/nios2eds/bin/gnu/h-x86_64-mingw32/bin/../lib/gcc/nios2-elf/12.3.1/../../../../../H-x86_64-mingw32/nios2-elf/lib/mhw-mulx\libc.a(libc_a-wbuf.o)
                0x0008c4e0                __swbuf
 .text          0x0008c4f8        0x0 c:/intelfpga_lite/23.1std/nios2eds/bin/gnu/h-x86_64-mingw32/bin/../lib/gcc/nios2-elf/12.3.1/../../../../../H-x86_64-mingw32/nios2-elf/lib/mhw-mulx\libc.a(libc_a-strcmp.o)
 .text.strcmp   0x0008c4f8       0xb8 c:/intelfpga_lite/23.1std/nios2eds/bin/gnu/h-x86_64-mingw32/bin/../lib/gcc/nios2-elf/12.3.1/../../../../../H-x86_64-mingw32/nios2-elf/lib/mhw-mulx\libc.a(libc_a-strcmp.o)
                0x0008c4f8                strcmp
 .text          0x0008c5b0        0x0 c:/intelfpga_lite/23.1std/nios2eds/bin/gnu/h-x86_64-mingw32/bin/../lib/gcc/nios2-elf/12.3.1/../../../../../H-x86_64-mingw32/nios2-elf/lib/mhw-mulx\libc.a(libc_a-fstatr.o)
 .text._fstat_r
                0x0008c5b0       0x60 c:/intelfpga_lite/23.1std/nios2eds/bin/gnu/h-x86_64-mingw32/bin/../lib/gcc/nios2-elf/12.3.1/../../../../../H-x86_64-mingw32/nios2-elf/lib/mhw-mulx\libc.a(libc_a-fstatr.o)
                0x0008c5b0                _fstat_r
 .text          0x0008c610        0x0 c:/intelfpga_lite/23.1std/nios2eds/bin/gnu/h-x86_64-mingw32/bin/../lib/gcc/nios2-elf/12.3.1/../../../../../H-x86_64-mingw32/nios2-elf/lib/mhw-mulx\libc.a(libc_a-isattyr.o)
 .text._isatty_r
                0x0008c610       0x58 c:/intelfpga_lite/23.1std/nios2eds/bin/gnu/h-x86_64-mingw32/bin/../lib/gcc/nios2-elf/12.3.1/../../../../../H-x86_64-mingw32/nios2-elf/lib/mhw-mulx\libc.a(libc_a-isattyr.o)
                0x0008c610                _isatty_r
 .text          0x0008c668        0x0 c:/intelfpga_lite/23.1std/nios2eds/bin/gnu/h-x86_64-mingw32/bin/../lib/gcc/nios2-elf/12.3.1/../../../../../H-x86_64-mingw32/nios2-elf/lib/mhw-mulx\libc.a(libc_a-sbrkr.o)
 .text._sbrk_r  0x0008c668       0x58 c:/intelfpga_lite/23.1std/nios2eds/bin/gnu/h-x86_64-mingw32/bin/../lib/gcc/nios2-elf/12.3.1/../../../../../H-x86_64-mingw32/nios2-elf/lib/mhw-mulx\libc.a(libc_a-sbrkr.o)
                0x0008c668                _sbrk_r
 .text          0x0008c6c0        0x0 c:/intelfpga_lite/23.1std/nios2eds/bin/gnu/h-x86_64-mingw32/bin/../lib/gcc/nios2-elf/12.3.1/../../../../../H-x86_64-mingw32/nios2-elf/lib/mhw-mulx\libc.a(libc_a-__call_atexit.o)
 .text.__call_exitprocs
                0x0008c6c0      0x118 c:/intelfpga_lite/23.1std/nios2eds/bin/gnu/h-x86_64-mingw32/bin/../lib/gcc/nios2-elf/12.3.1/../../../../../H-x86_64-mingw32/nios2-elf/lib/mhw-mulx\libc.a(libc_a-__call_atexit.o)
                0x0008c6c0                __call_exitprocs
 .text          0x0008c7d8        0x0 c:/intelfpga_lite/23.1std/nios2eds/bin/gnu/h-x86_64-mingw32/bin/../lib/gcc/nios2-elf/12.3.1/../../../../../H-x86_64-mingw32/nios2-elf/lib/mhw-mulx\libc.a(libc_a-assert.o)
 .text.__assert_func
                0x0008c7d8       0x64 c:/intelfpga_lite/23.1std/nios2eds/bin/gnu/h-x86_64-mingw32/bin/../lib/gcc/nios2-elf/12.3.1/../../../../../H-x86_64-mingw32/nios2-elf/lib/mhw-mulx\libc.a(libc_a-assert.o)
                0x0008c7d8                __assert_func
 .text.__assert
                0x0008c83c       0x14 c:/intelfpga_lite/23.1std/nios2eds/bin/gnu/h-x86_64-mingw32/bin/../lib/gcc/nios2-elf/12.3.1/../../../../../H-x86_64-mingw32/nios2-elf/lib/mhw-mulx\libc.a(libc_a-assert.o)
                0x0008c83c                __assert
 .text          0x0008c850        0x0 c:/intelfpga_lite/23.1std/nios2eds/bin/gnu/h-x86_64-mingw32/bin/../lib/gcc/nios2-elf/12.3.1/../../../../../H-x86_64-mingw32/nios2-elf/lib/mhw-mulx\libc.a(libc_a-callocr.o)
 .text._calloc_r
                0x0008c850       0xcc c:/intelfpga_lite/23.1std/nios2eds/bin/gnu/h-x86_64-mingw32/bin/../lib/gcc/nios2-elf/12.3.1/../../../../../H-x86_64-mingw32/nios2-elf/lib/mhw-mulx\libc.a(libc_a-callocr.o)
                0x0008c850                _calloc_r
 .text          0x0008c91c        0x0 c:/intelfpga_lite/23.1std/nios2eds/bin/gnu/h-x86_64-mingw32/bin/../lib/gcc/nios2-elf/12.3.1/../../../../../H-x86_64-mingw32/nios2-elf/lib/mhw-mulx\libc.a(libc_a-fiprintf.o)
 .text._fiprintf_r
                0x0008c91c       0x20 c:/intelfpga_lite/23.1std/nios2eds/bin/gnu/h-x86_64-mingw32/bin/../lib/gcc/nios2-elf/12.3.1/../../../../../H-x86_64-mingw32/nios2-elf/lib/mhw-mulx\libc.a(libc_a-fiprintf.o)
                0x0008c91c                _fiprintf_r
 .text.fiprintf
                0x0008c93c       0x38 c:/intelfpga_lite/23.1std/nios2eds/bin/gnu/h-x86_64-mingw32/bin/../lib/gcc/nios2-elf/12.3.1/../../../../../H-x86_64-mingw32/nios2-elf/lib/mhw-mulx\libc.a(libc_a-fiprintf.o)
                0x0008c93c                fiprintf
 .text          0x0008c974        0x0 c:/intelfpga_lite/23.1std/nios2eds/bin/gnu/h-x86_64-mingw32/bin/../lib/gcc/nios2-elf/12.3.1/../../../../../H-x86_64-mingw32/nios2-elf/lib/mhw-mulx\libc.a(libc_a-vfiprintfr_1.o)
 .text._vfiprintf_r
                0x0008c974        0x4 c:/intelfpga_lite/23.1std/nios2eds/bin/gnu/h-x86_64-mingw32/bin/../lib/gcc/nios2-elf/12.3.1/../../../../../H-x86_64-mingw32/nios2-elf/lib/mhw-mulx\libc.a(libc_a-vfiprintfr_1.o)
                0x0008c974                _vfiprintf_r
 .text          0x0008c978        0x0 c:/intelfpga_lite/23.1std/nios2eds/bin/gnu/h-x86_64-mingw32/bin/../lib/gcc/nios2-elf/12.3.1/../../../../../H-x86_64-mingw32/nios2-elf/lib/mhw-mulx\libc.a(libc_a-errno.o)
 .text.__errno  0x0008c978        0xc c:/intelfpga_lite/23.1std/nios2eds/bin/gnu/h-x86_64-mingw32/bin/../lib/gcc/nios2-elf/12.3.1/../../../../../H-x86_64-mingw32/nios2-elf/lib/mhw-mulx\libc.a(libc_a-errno.o)
                0x0008c978                __errno
 .text          0x0008c984        0x0 c:/intelfpga_lite/23.1std/nios2eds/bin/gnu/h-x86_64-mingw32/bin/../lib/gcc/nios2-elf/12.3.1/../../../../../H-x86_64-mingw32/nios2-elf/lib/mhw-mulx\libc.a(libc_a-abort.o)
 .text.abort    0x0008c984       0x18 c:/intelfpga_lite/23.1std/nios2eds/bin/gnu/h-x86_64-mingw32/bin/../lib/gcc/nios2-elf/12.3.1/../../../../../H-x86_64-mingw32/nios2-elf/lib/mhw-mulx\libc.a(libc_a-abort.o)
                0x0008c984                abort
 .text          0x0008c99c        0x0 c:/intelfpga_lite/23.1std/nios2eds/bin/gnu/h-x86_64-mingw32/bin/../lib/gcc/nios2-elf/12.3.1/../../../../../H-x86_64-mingw32/nios2-elf/lib/mhw-mulx\libc.a(libc_a-signal.o)
 .text._init_signal_r
                0x0008c99c       0x5c c:/intelfpga_lite/23.1std/nios2eds/bin/gnu/h-x86_64-mingw32/bin/../lib/gcc/nios2-elf/12.3.1/../../../../../H-x86_64-mingw32/nios2-elf/lib/mhw-mulx\libc.a(libc_a-signal.o)
                0x0008c99c                _init_signal_r
 .text._signal_r
                0x0008c9f8       0x8c c:/intelfpga_lite/23.1std/nios2eds/bin/gnu/h-x86_64-mingw32/bin/../lib/gcc/nios2-elf/12.3.1/../../../../../H-x86_64-mingw32/nios2-elf/lib/mhw-mulx\libc.a(libc_a-signal.o)
                0x0008c9f8                _signal_r
 .text._raise_r
                0x0008ca84       0xb0 c:/intelfpga_lite/23.1std/nios2eds/bin/gnu/h-x86_64-mingw32/bin/../lib/gcc/nios2-elf/12.3.1/../../../../../H-x86_64-mingw32/nios2-elf/lib/mhw-mulx\libc.a(libc_a-signal.o)
                0x0008ca84                _raise_r
 .text.__sigtramp_r
                0x0008cb34       0xbc c:/intelfpga_lite/23.1std/nios2eds/bin/gnu/h-x86_64-mingw32/bin/../lib/gcc/nios2-elf/12.3.1/../../../../../H-x86_64-mingw32/nios2-elf/lib/mhw-mulx\libc.a(libc_a-signal.o)
                0x0008cb34                __sigtramp_r
 .text.raise    0x0008cbf0       0xb4 c:/intelfpga_lite/23.1std/nios2eds/bin/gnu/h-x86_64-mingw32/bin/../lib/gcc/nios2-elf/12.3.1/../../../../../H-x86_64-mingw32/nios2-elf/lib/mhw-mulx\libc.a(libc_a-signal.o)
                0x0008cbf0                raise
 .text.signal   0x0008cca4       0x98 c:/intelfpga_lite/23.1std/nios2eds/bin/gnu/h-x86_64-mingw32/bin/../lib/gcc/nios2-elf/12.3.1/../../../../../H-x86_64-mingw32/nios2-elf/lib/mhw-mulx\libc.a(libc_a-signal.o)
                0x0008cca4                signal
 .text._init_signal
                0x0008cd3c       0x60 c:/intelfpga_lite/23.1std/nios2eds/bin/gnu/h-x86_64-mingw32/bin/../lib/gcc/nios2-elf/12.3.1/../../../../../H-x86_64-mingw32/nios2-elf/lib/mhw-mulx\libc.a(libc_a-signal.o)
                0x0008cd3c                _init_signal
 .text.__sigtramp
                0x0008cd9c       0xbc c:/intelfpga_lite/23.1std/nios2eds/bin/gnu/h-x86_64-mingw32/bin/../lib/gcc/nios2-elf/12.3.1/../../../../../H-x86_64-mingw32/nios2-elf/lib/mhw-mulx\libc.a(libc_a-signal.o)
                0x0008cd9c                __sigtramp
 .text          0x0008ce58        0x0 c:/intelfpga_lite/23.1std/nios2eds/bin/gnu/h-x86_64-mingw32/bin/../lib/gcc/nios2-elf/12.3.1/../../../../../H-x86_64-mingw32/nios2-elf/lib/mhw-mulx\libc.a(libc_a-signalr.o)
 .text._kill_r  0x0008ce58       0x60 c:/intelfpga_lite/23.1std/nios2eds/bin/gnu/h-x86_64-mingw32/bin/../lib/gcc/nios2-elf/12.3.1/../../../../../H-x86_64-mingw32/nios2-elf/lib/mhw-mulx\libc.a(libc_a-signalr.o)
                0x0008ce58                _kill_r
 .text._getpid_r
                0x0008ceb8        0x4 c:/intelfpga_lite/23.1std/nios2eds/bin/gnu/h-x86_64-mingw32/bin/../lib/gcc/nios2-elf/12.3.1/../../../../../H-x86_64-mingw32/nios2-elf/lib/mhw-mulx\libc.a(libc_a-signalr.o)
                0x0008ceb8                _getpid_r
 .text          0x0008cebc      0x550 c:/intelfpga_lite/23.1std/nios2eds/bin/gnu/h-x86_64-mingw32/bin/../lib/gcc/nios2-elf/12.3.1/mhw-mulx\libgcc.a(_udivdi3.o)
                0x0008cebc                __udivdi3
 .text          0x0008d40c      0x510 c:/intelfpga_lite/23.1std/nios2eds/bin/gnu/h-x86_64-mingw32/bin/../lib/gcc/nios2-elf/12.3.1/mhw-mulx\libgcc.a(_umoddi3.o)
                0x0008d40c                __umoddi3
 .text          0x0008d91c      0x1b4 c:/intelfpga_lite/23.1std/nios2eds/bin/gnu/h-x86_64-mingw32/bin/../lib/gcc/nios2-elf/12.3.1/mhw-mulx\libgcc.a(lib2-divmod.o)
                0x0008d91c                __divsi3
                0x0008d99c                __modsi3
                0x0008da10                __udivsi3
                0x0008da74                __umodsi3
 .text          0x0008dad0      0x904 c:/intelfpga_lite/23.1std/nios2eds/bin/gnu/h-x86_64-mingw32/bin/../lib/gcc/nios2-elf/12.3.1/mhw-mulx\libgcc.a(adddf3.o)
                0x0008dad0                __adddf3
 .text          0x0008e3d4      0x848 c:/intelfpga_lite/23.1std/nios2eds/bin/gnu/h-x86_64-mingw32/bin/../lib/gcc/nios2-elf/12.3.1/mhw-mulx\libgcc.a(divdf3.o)
                0x0008e3d4                __divdf3
 .text          0x0008ec1c       0x94 c:/intelfpga_lite/23.1std/nios2eds/bin/gnu/h-x86_64-mingw32/bin/../lib/gcc/nios2-elf/12.3.1/mhw-mulx\libgcc.a(eqdf2.o)
                0x0008ec1c                __nedf2
                0x0008ec1c                __eqdf2
 .text          0x0008ecb0       0xfc c:/intelfpga_lite/23.1std/nios2eds/bin/gnu/h-x86_64-mingw32/bin/../lib/gcc/nios2-elf/12.3.1/mhw-mulx\libgcc.a(gedf2.o)
                0x0008ecb0                __gedf2
                0x0008ecb0                __gtdf2
 .text          0x0008edac       0xf8 c:/intelfpga_lite/23.1std/nios2eds/bin/gnu/h-x86_64-mingw32/bin/../lib/gcc/nios2-elf/12.3.1/mhw-mulx\libgcc.a(ledf2.o)
                0x0008edac                __ledf2
                0x0008edac                __ltdf2
 .text          0x0008eea4      0x6d8 c:/intelfpga_lite/23.1std/nios2eds/bin/gnu/h-x86_64-mingw32/bin/../lib/gcc/nios2-elf/12.3.1/mhw-mulx\libgcc.a(muldf3.o)
                0x0008eea4                __muldf3
 .text          0x0008f57c      0x99c c:/intelfpga_lite/23.1std/nios2eds/bin/gnu/h-x86_64-mingw32/bin/../lib/gcc/nios2-elf/12.3.1/mhw-mulx\libgcc.a(subdf3.o)
                0x0008f57c                __subdf3
 .text          0x0008ff18       0x54 c:/intelfpga_lite/23.1std/nios2eds/bin/gnu/h-x86_64-mingw32/bin/../lib/gcc/nios2-elf/12.3.1/mhw-mulx\libgcc.a(unorddf2.o)
                0x0008ff18                __unorddf2
 .text          0x0008ff6c       0x80 c:/intelfpga_lite/23.1std/nios2eds/bin/gnu/h-x86_64-mingw32/bin/../lib/gcc/nios2-elf/12.3.1/mhw-mulx\libgcc.a(fixdfsi.o)
                0x0008ff6c                __fixdfsi
 .text          0x0008ffec       0xb8 c:/intelfpga_lite/23.1std/nios2eds/bin/gnu/h-x86_64-mingw32/bin/../lib/gcc/nios2-elf/12.3.1/mhw-mulx\libgcc.a(floatsidf.o)
                0x0008ffec                __floatsidf
 .text          0x000900a4       0x90 c:/intelfpga_lite/23.1std/nios2eds/bin/gnu/h-x86_64-mingw32/bin/../lib/gcc/nios2-elf/12.3.1/mhw-mulx\libgcc.a(floatunsidf.o)
                0x000900a4                __floatunsidf
 .text          0x00090134      0x10c c:/Users/Galileo/Projects/ELEC60011-fpga/system_template_de1_soc/software/hello_world2_bsp/\libhal_bsp.a(alt_close.o)
                0x00090170                close
 .text          0x00090240       0x2c c:/Users/Galileo/Projects/ELEC60011-fpga/system_template_de1_soc/software/hello_world2_bsp/\libhal_bsp.a(alt_dev.o)
 .text          0x0009026c        0x0 c:/Users/Galileo/Projects/ELEC60011-fpga/system_template_de1_soc/software/hello_world2_bsp/\libhal_bsp.a(alt_errno.o)
 .text          0x0009026c       0x3c c:/Users/Galileo/Projects/ELEC60011-fpga/system_template_de1_soc/software/hello_world2_bsp/\libhal_bsp.a(alt_exit.o)
                0x0009026c                _exit
 .text          0x000902a8       0xec c:/Users/Galileo/Projects/ELEC60011-fpga/system_template_de1_soc/software/hello_world2_bsp/\libhal_bsp.a(alt_fstat.o)
                0x000902e4                fstat
 .text          0x00090394       0x20 c:/Users/Galileo/Projects/ELEC60011-fpga/system_template_de1_soc/software/hello_world2_bsp/\libhal_bsp.a(alt_getpid.o)
                0x00090394                getpid
 .text          0x000903b4       0xe0 c:/Users/Galileo/Projects/ELEC60011-fpga/system_template_de1_soc/software/hello_world2_bsp/\libhal_bsp.a(alt_isatty.o)
                0x000903f0                isatty
 .text          0x00090494      0x12c c:/Users/Galileo/Projects/ELEC60011-fpga/system_template_de1_soc/software/hello_world2_bsp/\libhal_bsp.a(alt_kill.o)
                0x000904d0                kill
 .text          0x000905c0       0xec c:/Users/Galileo/Projects/ELEC60011-fpga/system_template_de1_soc/software/hello_world2_bsp/\libhal_bsp.a(alt_load.o)
                0x00090628                alt_load
 .text          0x000906ac      0x110 c:/Users/Galileo/Projects/ELEC60011-fpga/system_template_de1_soc/software/hello_world2_bsp/\libhal_bsp.a(alt_lseek.o)
                0x000906e8                lseek
 .text          0x000907bc       0x6c c:/Users/Galileo/Projects/ELEC60011-fpga/system_template_de1_soc/software/hello_world2_bsp/\libhal_bsp.a(alt_main.o)
                0x000907bc                alt_main
 .text          0x00090828       0x48 c:/Users/Galileo/Projects/ELEC60011-fpga/system_template_de1_soc/software/hello_world2_bsp/\libhal_bsp.a(alt_malloc_lock.o)
                0x00090828                __malloc_lock
                0x0009084c                __malloc_unlock
 .text          0x00090870      0x138 c:/Users/Galileo/Projects/ELEC60011-fpga/system_template_de1_soc/software/hello_world2_bsp/\libhal_bsp.a(alt_read.o)
                0x000908ac                read
 .text          0x000909a8       0x58 c:/Users/Galileo/Projects/ELEC60011-fpga/system_template_de1_soc/software/hello_world2_bsp/\libhal_bsp.a(alt_release_fd.o)
                0x000909a8                alt_release_fd
 .text          0x00090a00       0xb8 c:/Users/Galileo/Projects/ELEC60011-fpga/system_template_de1_soc/software/hello_world2_bsp/\libhal_bsp.a(alt_sbrk.o)
                0x00090a00                sbrk
 .text          0x00090ab8       0xb8 c:/Users/Galileo/Projects/ELEC60011-fpga/system_template_de1_soc/software/hello_world2_bsp/\libhal_bsp.a(alt_times.o)
                0x00090af4                times
 .text          0x00090b70      0x134 c:/Users/Galileo/Projects/ELEC60011-fpga/system_template_de1_soc/software/hello_world2_bsp/\libhal_bsp.a(alt_write.o)
                0x00090bac                write
 .text          0x00090ca4       0xc0 c:/Users/Galileo/Projects/ELEC60011-fpga/system_template_de1_soc/software/hello_world2_bsp/\libhal_bsp.a(alt_sys_init.o)
                0x00090cd8                alt_irq_init
                0x00090d14                alt_sys_init
 .text          0x00090d64       0xc0 c:/Users/Galileo/Projects/ELEC60011-fpga/system_template_de1_soc/software/hello_world2_bsp/\libhal_bsp.a(altera_avalon_jtag_uart_fd.o)
                0x00090d64                altera_avalon_jtag_uart_read_fd
                0x00090dc4                altera_avalon_jtag_uart_write_fd
 .text          0x00090e24       0xec c:/Users/Galileo/Projects/ELEC60011-fpga/system_template_de1_soc/software/hello_world2_bsp/\libhal_bsp.a(altera_avalon_jtag_uart_read.o)
                0x00090e24                altera_avalon_jtag_uart_read
 .text          0x00090f10       0x98 c:/Users/Galileo/Projects/ELEC60011-fpga/system_template_de1_soc/software/hello_world2_bsp/\libhal_bsp.a(altera_avalon_jtag_uart_write.o)
                0x00090f10                altera_avalon_jtag_uart_write
 .text          0x00090fa8      0x100 c:/Users/Galileo/Projects/ELEC60011-fpga/system_template_de1_soc/software/hello_world2_bsp/\libhal_bsp.a(altera_avalon_timer_sc.o)
                0x00091024                alt_avalon_timer_sc_init
 .text          0x000910a8       0x4c c:/Users/Galileo/Projects/ELEC60011-fpga/system_template_de1_soc/software/hello_world2_bsp/\libhal_bsp.a(alt_dcache_flush_all.o)
                0x000910a8                alt_dcache_flush_all
 .text          0x000910f4       0xe4 c:/Users/Galileo/Projects/ELEC60011-fpga/system_template_de1_soc/software/hello_world2_bsp/\libhal_bsp.a(alt_dev_llist_insert.o)
                0x00091130                alt_dev_llist_insert
 .text          0x000911d8       0x34 c:/Users/Galileo/Projects/ELEC60011-fpga/system_template_de1_soc/software/hello_world2_bsp/\libhal_bsp.a(alt_icache_flush_all.o)
                0x000911d8                alt_icache_flush_all
 .text          0x0009120c      0x1b0 c:/Users/Galileo/Projects/ELEC60011-fpga/system_template_de1_soc/software/hello_world2_bsp/\libhal_bsp.a(alt_iic.o)
                0x0009120c                alt_ic_isr_register
                0x0009125c                alt_ic_irq_enable
                0x000912e4                alt_ic_irq_disable
                0x00091370                alt_ic_irq_enabled
 .text          0x000913bc       0xe8 c:/Users/Galileo/Projects/ELEC60011-fpga/system_template_de1_soc/software/hello_world2_bsp/\libhal_bsp.a(alt_iic_isr_register.o)
                0x000913bc                alt_iic_isr_register
 .text          0x000914a4      0x12c c:/Users/Galileo/Projects/ELEC60011-fpga/system_template_de1_soc/software/hello_world2_bsp/\libhal_bsp.a(alt_io_redirect.o)
                0x00091554                alt_io_redirect
 .text          0x000915d0        0x0 c:/Users/Galileo/Projects/ELEC60011-fpga/system_template_de1_soc/software/hello_world2_bsp/\libhal_bsp.a(alt_irq_entry.o)
 .text          0x000915d0        0x0 c:/Users/Galileo/Projects/ELEC60011-fpga/system_template_de1_soc/software/hello_world2_bsp/\libhal_bsp.a(alt_irq_handler.o)
 .text          0x000915d0        0x0 c:/Users/Galileo/Projects/ELEC60011-fpga/system_template_de1_soc/software/hello_world2_bsp/\libhal_bsp.a(alt_irq_vars.o)
 .text          0x000915d0      0x248 c:/Users/Galileo/Projects/ELEC60011-fpga/system_template_de1_soc/software/hello_world2_bsp/\libhal_bsp.a(alt_open.o)
                0x000916c4                open
 .text          0x00091818      0x1d0 c:/Users/Galileo/Projects/ELEC60011-fpga/system_template_de1_soc/software/hello_world2_bsp/\libhal_bsp.a(alt_tick.o)
                0x00091818                alt_alarm_stop
                0x000918bc                alt_tick
 .text          0x000919e8       0x24 c:/Users/Galileo/Projects/ELEC60011-fpga/system_template_de1_soc/software/hello_world2_bsp/\libhal_bsp.a(altera_nios2_gen2_irq.o)
                0x000919e8                altera_nios2_gen2_irq_init
 .text          0x00091a0c        0x0 c:/Users/Galileo/Projects/ELEC60011-fpga/system_template_de1_soc/software/hello_world2_bsp/\libhal_bsp.a(alt_exception_entry.o)
 .text          0x00091a0c       0x90 c:/Users/Galileo/Projects/ELEC60011-fpga/system_template_de1_soc/software/hello_world2_bsp/\libhal_bsp.a(alt_find_dev.o)
                0x00091a0c                alt_find_dev
 .text          0x00091a9c      0x108 c:/Users/Galileo/Projects/ELEC60011-fpga/system_template_de1_soc/software/hello_world2_bsp/\libhal_bsp.a(alt_find_file.o)
                0x00091a9c                alt_find_file
 .text          0x00091ba4       0xa0 c:/Users/Galileo/Projects/ELEC60011-fpga/system_template_de1_soc/software/hello_world2_bsp/\libhal_bsp.a(alt_get_fd.o)
                0x00091ba4                alt_get_fd
 .text          0x00091c44       0x90 c:/Users/Galileo/Projects/ELEC60011-fpga/system_template_de1_soc/software/hello_world2_bsp/\libhal_bsp.a(alt_icache_flush.o)
                0x00091c44                alt_icache_flush
 .text          0x00091cd4       0x74 c:/Users/Galileo/Projects/ELEC60011-fpga/system_template_de1_soc/software/hello_world2_bsp/\libhal_bsp.a(alt_instruction_exception_entry.o)
                0x00091cd4                alt_exception_cause_generated_bad_addr
 .text          0x00091d48        0x0 c:/intelfpga_lite/23.1std/nios2eds/bin/gnu/h-x86_64-mingw32/bin/../lib/gcc/nios2-elf/12.3.1/../../../../../H-x86_64-mingw32/nios2-elf/lib/mhw-mulx\libc.a(libc_a-memcmp.o)
 .text.memcmp   0x00091d48       0x78 c:/intelfpga_lite/23.1std/nios2eds/bin/gnu/h-x86_64-mingw32/bin/../lib/gcc/nios2-elf/12.3.1/../../../../../H-x86_64-mingw32/nios2-elf/lib/mhw-mulx\libc.a(libc_a-memcmp.o)
                0x00091d48                memcmp
 *(.gnu.warning.*)
 *(.fini)
                [!provide]                        PROVIDE (__etext = ABSOLUTE (.))
                [!provide]                        PROVIDE (_etext = ABSOLUTE (.))
                [!provide]                        PROVIDE (etext = ABSOLUTE (.))
 *(.eh_frame_hdr)
                0x00091dc0                        . = ALIGN (0x4)
                [!provide]                        PROVIDE (__preinit_array_start = ABSOLUTE (.))
 *(.preinit_array)
                [!provide]                        PROVIDE (__preinit_array_end = ABSOLUTE (.))
                [!provide]                        PROVIDE (__init_array_start = ABSOLUTE (.))
 *(SORT_BY_INIT_PRIORITY(.init_array.*))
 *(.init_array)
                [!provide]                        PROVIDE (__init_array_end = ABSOLUTE (.))
                [!provide]                        PROVIDE (__fini_array_start = ABSOLUTE (.))
 *(.fini_array)
                [!provide]                        PROVIDE (__fini_array_end = ABSOLUTE (.))
 *(.eh_frame)
 *(.gcc_except_table .gcc_except_table.*)
 *(.dynamic)
                [!provide]                        PROVIDE (__CTOR_LIST__ = ABSOLUTE (.))
 *(.ctors)
 *(SORT_BY_NAME(.ctors.*))
                [!provide]                        PROVIDE (__CTOR_END__ = ABSOLUTE (.))
                [!provide]                        PROVIDE (__DTOR_LIST__ = ABSOLUTE (.))
 *(.dtors)
 *(SORT_BY_NAME(.dtors.*))
                [!provide]                        PROVIDE (__DTOR_END__ = ABSOLUTE (.))
 *(.jcr)
                0x00091dc0                        . = ALIGN (0x4)

.rodata         0x00091dc0      0xa54
                0x00091dc0                        PROVIDE (__ram_rodata_start = ABSOLUTE (.))
                0x00091dc0                        . = ALIGN (0x4)
 *(.rodata .rodata.* .gnu.linkonce.r.*)
 .rodata        0x00091dc0       0x42 obj/default/hello_world.o
 *fill*         0x00091e02        0x2 
 .rodata.npio2_hw
                0x00091e04       0x80 c:/intelfpga_lite/23.1std/nios2eds/bin/gnu/h-x86_64-mingw32/bin/../lib/gcc/nios2-elf/12.3.1/../../../../../H-x86_64-mingw32/nios2-elf/lib/mhw-mulx\libm.a(libm_a-ef_rem_pio2.o)
 .rodata.two_over_pi
                0x00091e84      0x318 c:/intelfpga_lite/23.1std/nios2eds/bin/gnu/h-x86_64-mingw32/bin/../lib/gcc/nios2-elf/12.3.1/../../../../../H-x86_64-mingw32/nios2-elf/lib/mhw-mulx\libm.a(libm_a-ef_rem_pio2.o)
 .rodata.PIo2   0x0009219c       0x2c c:/intelfpga_lite/23.1std/nios2eds/bin/gnu/h-x86_64-mingw32/bin/../lib/gcc/nios2-elf/12.3.1/../../../../../H-x86_64-mingw32/nios2-elf/lib/mhw-mulx\libm.a(libm_a-kf_rem_pio2.o)
 .rodata.init_jk
                0x000921c8        0xc c:/intelfpga_lite/23.1std/nios2eds/bin/gnu/h-x86_64-mingw32/bin/../lib/gcc/nios2-elf/12.3.1/../../../../../H-x86_64-mingw32/nios2-elf/lib/mhw-mulx\libm.a(libm_a-kf_rem_pio2.o)
 .rodata        0x000921d4      0x100 c:/intelfpga_lite/23.1std/nios2eds/bin/gnu/h-x86_64-mingw32/bin/../lib/gcc/nios2-elf/12.3.1/mhw-mulx\libgcc.a(_clz.o)
                0x000921d4                __clz_tab
 .rodata._puts_r.str1.4
                0x000922d4        0x2 c:/intelfpga_lite/23.1std/nios2eds/bin/gnu/h-x86_64-mingw32/bin/../lib/gcc/nios2-elf/12.3.1/../../../../../H-x86_64-mingw32/nios2-elf/lib/mhw-mulx\libc.a(libc_a-puts.o)
 *fill*         0x000922d6        0x2 
 .rodata.___vfprintf_internal_r.str1.4
                0x000922d8       0x42 c:/intelfpga_lite/23.1std/nios2eds/bin/gnu/h-x86_64-mingw32/bin/../lib/gcc/nios2-elf/12.3.1/../../../../../H-x86_64-mingw32/nios2-elf/lib/mhw-mulx\libc.a(libc_a-vfprintf.o)
 *fill*         0x0009231a        0x2 
 .rodata.zeroes.0
                0x0009231c       0x10 c:/intelfpga_lite/23.1std/nios2eds/bin/gnu/h-x86_64-mingw32/bin/../lib/gcc/nios2-elf/12.3.1/../../../../../H-x86_64-mingw32/nios2-elf/lib/mhw-mulx\libc.a(libc_a-vfprintf.o)
 .rodata.blanks.1
                0x0009232c       0x10 c:/intelfpga_lite/23.1std/nios2eds/bin/gnu/h-x86_64-mingw32/bin/../lib/gcc/nios2-elf/12.3.1/../../../../../H-x86_64-mingw32/nios2-elf/lib/mhw-mulx\libc.a(libc_a-vfprintf.o)
 .rodata.___vfiprintf_internal_r.str1.4
                0x0009233c       0x2f c:/intelfpga_lite/23.1std/nios2eds/bin/gnu/h-x86_64-mingw32/bin/../lib/gcc/nios2-elf/12.3.1/../../../../../H-x86_64-mingw32/nios2-elf/lib/mhw-mulx\libc.a(libc_a-vfiprintf.o)
 .rodata.zeroes.0
                0x0009233c       0x10 c:/intelfpga_lite/23.1std/nios2eds/bin/gnu/h-x86_64-mingw32/bin/../lib/gcc/nios2-elf/12.3.1/../../../../../H-x86_64-mingw32/nios2-elf/lib/mhw-mulx\libc.a(libc_a-vfiprintf.o)
 .rodata.blanks.1
                0x0009234c       0x10 c:/intelfpga_lite/23.1std/nios2eds/bin/gnu/h-x86_64-mingw32/bin/../lib/gcc/nios2-elf/12.3.1/../../../../../H-x86_64-mingw32/nios2-elf/lib/mhw-mulx\libc.a(libc_a-vfiprintf.o)
 .rodata._setlocale_r.str1.4
                0x0009235c        0xa c:/intelfpga_lite/23.1std/nios2eds/bin/gnu/h-x86_64-mingw32/bin/../lib/gcc/nios2-elf/12.3.1/../../../../../H-x86_64-mingw32/nios2-elf/lib/mhw-mulx\libc.a(libc_a-locale.o)
                                  0xd (size before relaxing)
 *fill*         0x00092366        0x2 
 .rodata.str1.4
                0x00092368        0x2 c:/intelfpga_lite/23.1std/nios2eds/bin/gnu/h-x86_64-mingw32/bin/../lib/gcc/nios2-elf/12.3.1/../../../../../H-x86_64-mingw32/nios2-elf/lib/mhw-mulx\libc.a(libc_a-locale.o)
 *fill*         0x0009236a        0x2 
 .rodata._dtoa_r.str1.4
                0x0009236c       0x5b c:/intelfpga_lite/23.1std/nios2eds/bin/gnu/h-x86_64-mingw32/bin/../lib/gcc/nios2-elf/12.3.1/../../../../../H-x86_64-mingw32/nios2-elf/lib/mhw-mulx\libc.a(libc_a-dtoa.o)
                                 0x5f (size before relaxing)
 *fill*         0x000923c7        0x1 
 .rodata.__multadd.str1.4
                0x000923c8       0x38 c:/intelfpga_lite/23.1std/nios2eds/bin/gnu/h-x86_64-mingw32/bin/../lib/gcc/nios2-elf/12.3.1/../../../../../H-x86_64-mingw32/nios2-elf/lib/mhw-mulx\libc.a(libc_a-mprec.o)
                                 0x4c (size before relaxing)
 .rodata.p05.0  0x00092400        0xc c:/intelfpga_lite/23.1std/nios2eds/bin/gnu/h-x86_64-mingw32/bin/../lib/gcc/nios2-elf/12.3.1/../../../../../H-x86_64-mingw32/nios2-elf/lib/mhw-mulx\libc.a(libc_a-mprec.o)
 .rodata.__mprec_tinytens
                0x0009240c       0x28 c:/intelfpga_lite/23.1std/nios2eds/bin/gnu/h-x86_64-mingw32/bin/../lib/gcc/nios2-elf/12.3.1/../../../../../H-x86_64-mingw32/nios2-elf/lib/mhw-mulx\libc.a(libc_a-mprec.o)
                0x0009240c                __mprec_tinytens
 .rodata.__mprec_bigtens
                0x00092434       0x28 c:/intelfpga_lite/23.1std/nios2eds/bin/gnu/h-x86_64-mingw32/bin/../lib/gcc/nios2-elf/12.3.1/../../../../../H-x86_64-mingw32/nios2-elf/lib/mhw-mulx\libc.a(libc_a-mprec.o)
                0x00092434                __mprec_bigtens
 .rodata.__mprec_tens
                0x0009245c       0xc8 c:/intelfpga_lite/23.1std/nios2eds/bin/gnu/h-x86_64-mingw32/bin/../lib/gcc/nios2-elf/12.3.1/../../../../../H-x86_64-mingw32/nios2-elf/lib/mhw-mulx\libc.a(libc_a-mprec.o)
                0x0009245c                __mprec_tens
 .rodata._ctype_
                0x00092524      0x101 c:/intelfpga_lite/23.1std/nios2eds/bin/gnu/h-x86_64-mingw32/bin/../lib/gcc/nios2-elf/12.3.1/../../../../../H-x86_64-mingw32/nios2-elf/lib/mhw-mulx\libc.a(libc_a-ctype_.o)
                0x00092524                _ctype_
 *fill*         0x00092625        0x3 
 .rodata._ctype_b
                0x00092628      0x180 c:/intelfpga_lite/23.1std/nios2eds/bin/gnu/h-x86_64-mingw32/bin/../lib/gcc/nios2-elf/12.3.1/../../../../../H-x86_64-mingw32/nios2-elf/lib/mhw-mulx\libc.a(libc_a-ctype_.o)
                0x00092628                _ctype_b
 .rodata.__assert_func.str1.4
                0x000927a8       0x3f c:/intelfpga_lite/23.1std/nios2eds/bin/gnu/h-x86_64-mingw32/bin/../lib/gcc/nios2-elf/12.3.1/../../../../../H-x86_64-mingw32/nios2-elf/lib/mhw-mulx\libc.a(libc_a-assert.o)
                                 0x43 (size before relaxing)
 *fill*         0x000927e7        0x1 
 .rodata        0x000927e8        0xa c:/Users/Galileo/Projects/ELEC60011-fpga/system_template_de1_soc/software/hello_world2_bsp/\libhal_bsp.a(alt_dev.o)
 *fill*         0x000927f2        0x2 
 .rodata        0x000927f4        0xf c:/Users/Galileo/Projects/ELEC60011-fpga/system_template_de1_soc/software/hello_world2_bsp/\libhal_bsp.a(alt_main.o)
 *fill*         0x00092803        0x1 
 .rodata        0x00092804        0xf c:/Users/Galileo/Projects/ELEC60011-fpga/system_template_de1_soc/software/hello_world2_bsp/\libhal_bsp.a(alt_sys_init.o)
 *(.rodata1)
                0x00092814                        . = ALIGN (0x4)
 *fill*         0x00092813        0x1 
                0x00092814                        PROVIDE (__ram_rodata_end = ABSOLUTE (.))
                0x00091dc0                        PROVIDE (__flash_rodata_start = LOADADDR (.rodata))

.rwdata         0x00092814      0x8a4 load address 0x000930b8
                0x00092814                        PROVIDE (__ram_rwdata_start = ABSOLUTE (.))
                0x00092814                        . = ALIGN (0x4)
 *(.got.plt)
 *(.got)
 *(.data1)
 *(.data .data.* .gnu.linkonce.d.*)
 .data          0x00092814        0x0 c:/Users/Galileo/Projects/ELEC60011-fpga/system_template_de1_soc/software/hello_world2_bsp//obj/HAL/src/crt0.o
 .data          0x00092814        0x0 obj/default/hello_world.o
 .data          0x00092814        0x0 c:/intelfpga_lite/23.1std/nios2eds/bin/gnu/h-x86_64-mingw32/bin/../lib/gcc/nios2-elf/12.3.1/../../../../../H-x86_64-mingw32/nios2-elf/lib/mhw-mulx\libm.a(libm_a-sf_cos.o)
 .data          0x00092814        0x0 c:/intelfpga_lite/23.1std/nios2eds/bin/gnu/h-x86_64-mingw32/bin/../lib/gcc/nios2-elf/12.3.1/../../../../../H-x86_64-mingw32/nios2-elf/lib/mhw-mulx\libm.a(libm_a-kf_cos.o)
 .data          0x00092814        0x0 c:/intelfpga_lite/23.1std/nios2eds/bin/gnu/h-x86_64-mingw32/bin/../lib/gcc/nios2-elf/12.3.1/../../../../../H-x86_64-mingw32/nios2-elf/lib/mhw-mulx\libm.a(libm_a-kf_sin.o)
 .data          0x00092814        0x0 c:/intelfpga_lite/23.1std/nios2eds/bin/gnu/h-x86_64-mingw32/bin/../lib/gcc/nios2-elf/12.3.1/../../../../../H-x86_64-mingw32/nios2-elf/lib/mhw-mulx\libm.a(libm_a-ef_rem_pio2.o)
 .data          0x00092814        0x0 c:/intelfpga_lite/23.1std/nios2eds/bin/gnu/h-x86_64-mingw32/bin/../lib/gcc/nios2-elf/12.3.1/../../../../../H-x86_64-mingw32/nios2-elf/lib/mhw-mulx\libm.a(libm_a-sf_fabs.o)
 .data          0x00092814        0x0 c:/intelfpga_lite/23.1std/nios2eds/bin/gnu/h-x86_64-mingw32/bin/../lib/gcc/nios2-elf/12.3.1/../../../../../H-x86_64-mingw32/nios2-elf/lib/mhw-mulx\libm.a(libm_a-kf_rem_pio2.o)
 .data          0x00092814        0x0 c:/intelfpga_lite/23.1std/nios2eds/bin/gnu/h-x86_64-mingw32/bin/../lib/gcc/nios2-elf/12.3.1/../../../../../H-x86_64-mingw32/nios2-elf/lib/mhw-mulx\libm.a(libm_a-sf_floor.o)
 .data          0x00092814        0x0 c:/intelfpga_lite/23.1std/nios2eds/bin/gnu/h-x86_64-mingw32/bin/../lib/gcc/nios2-elf/12.3.1/../../../../../H-x86_64-mingw32/nios2-elf/lib/mhw-mulx\libm.a(libm_a-sf_scalbn.o)
 .data          0x00092814        0x0 c:/intelfpga_lite/23.1std/nios2eds/bin/gnu/h-x86_64-mingw32/bin/../lib/gcc/nios2-elf/12.3.1/mhw-mulx\libgcc.a(addsf3.o)
 .data          0x00092814        0x0 c:/intelfpga_lite/23.1std/nios2eds/bin/gnu/h-x86_64-mingw32/bin/../lib/gcc/nios2-elf/12.3.1/mhw-mulx\libgcc.a(divsf3.o)
 .data          0x00092814        0x0 c:/intelfpga_lite/23.1std/nios2eds/bin/gnu/h-x86_64-mingw32/bin/../lib/gcc/nios2-elf/12.3.1/mhw-mulx\libgcc.a(eqsf2.o)
 .data          0x00092814        0x0 c:/intelfpga_lite/23.1std/nios2eds/bin/gnu/h-x86_64-mingw32/bin/../lib/gcc/nios2-elf/12.3.1/mhw-mulx\libgcc.a(gesf2.o)
 .data          0x00092814        0x0 c:/intelfpga_lite/23.1std/nios2eds/bin/gnu/h-x86_64-mingw32/bin/../lib/gcc/nios2-elf/12.3.1/mhw-mulx\libgcc.a(mulsf3.o)
 .data          0x00092814        0x0 c:/intelfpga_lite/23.1std/nios2eds/bin/gnu/h-x86_64-mingw32/bin/../lib/gcc/nios2-elf/12.3.1/mhw-mulx\libgcc.a(subsf3.o)
 .data          0x00092814        0x0 c:/intelfpga_lite/23.1std/nios2eds/bin/gnu/h-x86_64-mingw32/bin/../lib/gcc/nios2-elf/12.3.1/mhw-mulx\libgcc.a(fixsfsi.o)
 .data          0x00092814        0x0 c:/intelfpga_lite/23.1std/nios2eds/bin/gnu/h-x86_64-mingw32/bin/../lib/gcc/nios2-elf/12.3.1/mhw-mulx\libgcc.a(floatsisf.o)
 .data          0x00092814        0x0 c:/intelfpga_lite/23.1std/nios2eds/bin/gnu/h-x86_64-mingw32/bin/../lib/gcc/nios2-elf/12.3.1/mhw-mulx\libgcc.a(_clzsi2.o)
 .data          0x00092814        0x0 c:/intelfpga_lite/23.1std/nios2eds/bin/gnu/h-x86_64-mingw32/bin/../lib/gcc/nios2-elf/12.3.1/mhw-mulx\libgcc.a(_clz.o)
 .data          0x00092814        0x0 c:/intelfpga_lite/23.1std/nios2eds/bin/gnu/h-x86_64-mingw32/bin/../lib/gcc/nios2-elf/12.3.1/../../../../../H-x86_64-mingw32/nios2-elf/lib/mhw-mulx\libc.a(libc_a-rand.o)
 .data          0x00092814        0x0 c:/intelfpga_lite/23.1std/nios2eds/bin/gnu/h-x86_64-mingw32/bin/../lib/gcc/nios2-elf/12.3.1/../../../../../H-x86_64-mingw32/nios2-elf/lib/mhw-mulx\libc.a(libc_a-printf.o)
 .data          0x00092814        0x0 c:/intelfpga_lite/23.1std/nios2eds/bin/gnu/h-x86_64-mingw32/bin/../lib/gcc/nios2-elf/12.3.1/../../../../../H-x86_64-mingw32/nios2-elf/lib/mhw-mulx\libc.a(libc_a-puts.o)
 .data          0x00092814        0x0 c:/intelfpga_lite/23.1std/nios2eds/bin/gnu/h-x86_64-mingw32/bin/../lib/gcc/nios2-elf/12.3.1/../../../../../H-x86_64-mingw32/nios2-elf/lib/mhw-mulx\libc.a(libc_a-strlen.o)
 .data          0x00092814        0x0 c:/intelfpga_lite/23.1std/nios2eds/bin/gnu/h-x86_64-mingw32/bin/../lib/gcc/nios2-elf/12.3.1/../../../../../H-x86_64-mingw32/nios2-elf/lib/mhw-mulx\libc.a(libc_a-impure.o)
 .data._impure_data
                0x00092814      0x11c c:/intelfpga_lite/23.1std/nios2eds/bin/gnu/h-x86_64-mingw32/bin/../lib/gcc/nios2-elf/12.3.1/../../../../../H-x86_64-mingw32/nios2-elf/lib/mhw-mulx\libc.a(libc_a-impure.o)
                0x00092814                _impure_data
 .data          0x00092930        0x0 c:/intelfpga_lite/23.1std/nios2eds/bin/gnu/h-x86_64-mingw32/bin/../lib/gcc/nios2-elf/12.3.1/../../../../../H-x86_64-mingw32/nios2-elf/lib/mhw-mulx\libc.a(libc_a-vfprintf.o)
 .data          0x00092930        0x0 c:/intelfpga_lite/23.1std/nios2eds/bin/gnu/h-x86_64-mingw32/bin/../lib/gcc/nios2-elf/12.3.1/../../../../../H-x86_64-mingw32/nios2-elf/lib/mhw-mulx\libc.a(libc_a-vfiprintf.o)
 .data          0x00092930        0x0 c:/intelfpga_lite/23.1std/nios2eds/bin/gnu/h-x86_64-mingw32/bin/../lib/gcc/nios2-elf/12.3.1/../../../../../H-x86_64-mingw32/nios2-elf/lib/mhw-mulx\libc.a(libc_a-fflush.o)
 .data          0x00092930        0x0 c:/intelfpga_lite/23.1std/nios2eds/bin/gnu/h-x86_64-mingw32/bin/../lib/gcc/nios2-elf/12.3.1/../../../../../H-x86_64-mingw32/nios2-elf/lib/mhw-mulx\libc.a(libc_a-findfp.o)
 .data.__sglue  0x00092930        0xc c:/intelfpga_lite/23.1std/nios2eds/bin/gnu/h-x86_64-mingw32/bin/../lib/gcc/nios2-elf/12.3.1/../../../../../H-x86_64-mingw32/nios2-elf/lib/mhw-mulx\libc.a(libc_a-findfp.o)
                0x00092930                __sglue
 .data          0x0009293c        0x0 c:/intelfpga_lite/23.1std/nios2eds/bin/gnu/h-x86_64-mingw32/bin/../lib/gcc/nios2-elf/12.3.1/../../../../../H-x86_64-mingw32/nios2-elf/lib/mhw-mulx\libc.a(libc_a-fvwrite.o)
 .data          0x0009293c        0x0 c:/intelfpga_lite/23.1std/nios2eds/bin/gnu/h-x86_64-mingw32/bin/../lib/gcc/nios2-elf/12.3.1/../../../../../H-x86_64-mingw32/nios2-elf/lib/mhw-mulx\libc.a(libc_a-fwalk.o)
 .data          0x0009293c        0x0 c:/intelfpga_lite/23.1std/nios2eds/bin/gnu/h-x86_64-mingw32/bin/../lib/gcc/nios2-elf/12.3.1/../../../../../H-x86_64-mingw32/nios2-elf/lib/mhw-mulx\libc.a(libc_a-stdio.o)
 .data          0x0009293c        0x0 c:/intelfpga_lite/23.1std/nios2eds/bin/gnu/h-x86_64-mingw32/bin/../lib/gcc/nios2-elf/12.3.1/../../../../../H-x86_64-mingw32/nios2-elf/lib/mhw-mulx\libc.a(libc_a-wsetup.o)
 .data          0x0009293c        0x0 c:/intelfpga_lite/23.1std/nios2eds/bin/gnu/h-x86_64-mingw32/bin/../lib/gcc/nios2-elf/12.3.1/../../../../../H-x86_64-mingw32/nios2-elf/lib/mhw-mulx\libc.a(libc_a-fputwc.o)
 .data          0x0009293c        0x0 c:/intelfpga_lite/23.1std/nios2eds/bin/gnu/h-x86_64-mingw32/bin/../lib/gcc/nios2-elf/12.3.1/../../../../../H-x86_64-mingw32/nios2-elf/lib/mhw-mulx\libc.a(libc_a-memchr.o)
 .data          0x0009293c        0x0 c:/intelfpga_lite/23.1std/nios2eds/bin/gnu/h-x86_64-mingw32/bin/../lib/gcc/nios2-elf/12.3.1/../../../../../H-x86_64-mingw32/nios2-elf/lib/mhw-mulx\libc.a(libc_a-memcpy.o)
 .data          0x0009293c        0x0 c:/intelfpga_lite/23.1std/nios2eds/bin/gnu/h-x86_64-mingw32/bin/../lib/gcc/nios2-elf/12.3.1/../../../../../H-x86_64-mingw32/nios2-elf/lib/mhw-mulx\libc.a(libc_a-memmove.o)
 .data          0x0009293c        0x0 c:/intelfpga_lite/23.1std/nios2eds/bin/gnu/h-x86_64-mingw32/bin/../lib/gcc/nios2-elf/12.3.1/../../../../../H-x86_64-mingw32/nios2-elf/lib/mhw-mulx\libc.a(libc_a-memset.o)
 .data          0x0009293c        0x0 c:/intelfpga_lite/23.1std/nios2eds/bin/gnu/h-x86_64-mingw32/bin/../lib/gcc/nios2-elf/12.3.1/../../../../../H-x86_64-mingw32/nios2-elf/lib/mhw-mulx\libc.a(libc_a-locale.o)
 .data.__global_locale
                0x0009293c      0x16c c:/intelfpga_lite/23.1std/nios2eds/bin/gnu/h-x86_64-mingw32/bin/../lib/gcc/nios2-elf/12.3.1/../../../../../H-x86_64-mingw32/nios2-elf/lib/mhw-mulx\libc.a(libc_a-locale.o)
                0x0009293c                __global_locale
 .data          0x00092aa8        0x0 c:/intelfpga_lite/23.1std/nios2eds/bin/gnu/h-x86_64-mingw32/bin/../lib/gcc/nios2-elf/12.3.1/../../../../../H-x86_64-mingw32/nios2-elf/lib/mhw-mulx\libc.a(libc_a-localeconv.o)
 .data          0x00092aa8        0x0 c:/intelfpga_lite/23.1std/nios2eds/bin/gnu/h-x86_64-mingw32/bin/../lib/gcc/nios2-elf/12.3.1/../../../../../H-x86_64-mingw32/nios2-elf/lib/mhw-mulx\libc.a(libc_a-closer.o)
 .data          0x00092aa8        0x0 c:/intelfpga_lite/23.1std/nios2eds/bin/gnu/h-x86_64-mingw32/bin/../lib/gcc/nios2-elf/12.3.1/../../../../../H-x86_64-mingw32/nios2-elf/lib/mhw-mulx\libc.a(libc_a-reent.o)
 .data          0x00092aa8        0x0 c:/intelfpga_lite/23.1std/nios2eds/bin/gnu/h-x86_64-mingw32/bin/../lib/gcc/nios2-elf/12.3.1/../../../../../H-x86_64-mingw32/nios2-elf/lib/mhw-mulx\libc.a(libc_a-lseekr.o)
 .data          0x00092aa8        0x0 c:/intelfpga_lite/23.1std/nios2eds/bin/gnu/h-x86_64-mingw32/bin/../lib/gcc/nios2-elf/12.3.1/../../../../../H-x86_64-mingw32/nios2-elf/lib/mhw-mulx\libc.a(libc_a-readr.o)
 .data          0x00092aa8        0x0 c:/intelfpga_lite/23.1std/nios2eds/bin/gnu/h-x86_64-mingw32/bin/../lib/gcc/nios2-elf/12.3.1/../../../../../H-x86_64-mingw32/nios2-elf/lib/mhw-mulx\libc.a(libc_a-writer.o)
 .data          0x00092aa8        0x0 c:/intelfpga_lite/23.1std/nios2eds/bin/gnu/h-x86_64-mingw32/bin/../lib/gcc/nios2-elf/12.3.1/../../../../../H-x86_64-mingw32/nios2-elf/lib/mhw-mulx\libc.a(libc_a-dtoa.o)
 .data          0x00092aa8        0x0 c:/intelfpga_lite/23.1std/nios2eds/bin/gnu/h-x86_64-mingw32/bin/../lib/gcc/nios2-elf/12.3.1/../../../../../H-x86_64-mingw32/nios2-elf/lib/mhw-mulx\libc.a(libc_a-exit.o)
 .data          0x00092aa8        0x0 c:/intelfpga_lite/23.1std/nios2eds/bin/gnu/h-x86_64-mingw32/bin/../lib/gcc/nios2-elf/12.3.1/../../../../../H-x86_64-mingw32/nios2-elf/lib/mhw-mulx\libc.a(libc_a-freer.o)
 .data          0x00092aa8        0x0 c:/intelfpga_lite/23.1std/nios2eds/bin/gnu/h-x86_64-mingw32/bin/../lib/gcc/nios2-elf/12.3.1/../../../../../H-x86_64-mingw32/nios2-elf/lib/mhw-mulx\libc.a(libc_a-mallocr.o)
 .data.__malloc_av_
                0x00092aa8      0x408 c:/intelfpga_lite/23.1std/nios2eds/bin/gnu/h-x86_64-mingw32/bin/../lib/gcc/nios2-elf/12.3.1/../../../../../H-x86_64-mingw32/nios2-elf/lib/mhw-mulx\libc.a(libc_a-mallocr.o)
                0x00092aa8                __malloc_av_
 .data          0x00092eb0        0x0 c:/intelfpga_lite/23.1std/nios2eds/bin/gnu/h-x86_64-mingw32/bin/../lib/gcc/nios2-elf/12.3.1/../../../../../H-x86_64-mingw32/nios2-elf/lib/mhw-mulx\libc.a(libc_a-mbtowc_r.o)
 .data          0x00092eb0        0x0 c:/intelfpga_lite/23.1std/nios2eds/bin/gnu/h-x86_64-mingw32/bin/../lib/gcc/nios2-elf/12.3.1/../../../../../H-x86_64-mingw32/nios2-elf/lib/mhw-mulx\libc.a(libc_a-mprec.o)
 .data          0x00092eb0        0x0 c:/intelfpga_lite/23.1std/nios2eds/bin/gnu/h-x86_64-mingw32/bin/../lib/gcc/nios2-elf/12.3.1/../../../../../H-x86_64-mingw32/nios2-elf/lib/mhw-mulx\libc.a(libc_a-reallocr.o)
 .data          0x00092eb0        0x0 c:/intelfpga_lite/23.1std/nios2eds/bin/gnu/h-x86_64-mingw32/bin/../lib/gcc/nios2-elf/12.3.1/../../../../../H-x86_64-mingw32/nios2-elf/lib/mhw-mulx\libc.a(libc_a-wctomb_r.o)
 .data          0x00092eb0        0x0 c:/intelfpga_lite/23.1std/nios2eds/bin/gnu/h-x86_64-mingw32/bin/../lib/gcc/nios2-elf/12.3.1/../../../../../H-x86_64-mingw32/nios2-elf/lib/mhw-mulx\libc.a(libc_a-wcrtomb.o)
 .data          0x00092eb0        0x0 c:/intelfpga_lite/23.1std/nios2eds/bin/gnu/h-x86_64-mingw32/bin/../lib/gcc/nios2-elf/12.3.1/../../../../../H-x86_64-mingw32/nios2-elf/lib/mhw-mulx\libc.a(libc_a-ctype_.o)
 .data          0x00092eb0        0x0 c:/intelfpga_lite/23.1std/nios2eds/bin/gnu/h-x86_64-mingw32/bin/../lib/gcc/nios2-elf/12.3.1/../../../../../H-x86_64-mingw32/nios2-elf/lib/mhw-mulx\libc.a(libc_a-fclose.o)
 .data          0x00092eb0        0x0 c:/intelfpga_lite/23.1std/nios2eds/bin/gnu/h-x86_64-mingw32/bin/../lib/gcc/nios2-elf/12.3.1/../../../../../H-x86_64-mingw32/nios2-elf/lib/mhw-mulx\libc.a(libc_a-makebuf.o)
 .data          0x00092eb0        0x0 c:/intelfpga_lite/23.1std/nios2eds/bin/gnu/h-x86_64-mingw32/bin/../lib/gcc/nios2-elf/12.3.1/../../../../../H-x86_64-mingw32/nios2-elf/lib/mhw-mulx\libc.a(libc_a-wbuf.o)
 .data          0x00092eb0        0x0 c:/intelfpga_lite/23.1std/nios2eds/bin/gnu/h-x86_64-mingw32/bin/../lib/gcc/nios2-elf/12.3.1/../../../../../H-x86_64-mingw32/nios2-elf/lib/mhw-mulx\libc.a(libc_a-strcmp.o)
 .data          0x00092eb0        0x0 c:/intelfpga_lite/23.1std/nios2eds/bin/gnu/h-x86_64-mingw32/bin/../lib/gcc/nios2-elf/12.3.1/../../../../../H-x86_64-mingw32/nios2-elf/lib/mhw-mulx\libc.a(libc_a-fstatr.o)
 .data          0x00092eb0        0x0 c:/intelfpga_lite/23.1std/nios2eds/bin/gnu/h-x86_64-mingw32/bin/../lib/gcc/nios2-elf/12.3.1/../../../../../H-x86_64-mingw32/nios2-elf/lib/mhw-mulx\libc.a(libc_a-isattyr.o)
 .data          0x00092eb0        0x0 c:/intelfpga_lite/23.1std/nios2eds/bin/gnu/h-x86_64-mingw32/bin/../lib/gcc/nios2-elf/12.3.1/../../../../../H-x86_64-mingw32/nios2-elf/lib/mhw-mulx\libc.a(libc_a-sbrkr.o)
 .data          0x00092eb0        0x0 c:/intelfpga_lite/23.1std/nios2eds/bin/gnu/h-x86_64-mingw32/bin/../lib/gcc/nios2-elf/12.3.1/../../../../../H-x86_64-mingw32/nios2-elf/lib/mhw-mulx\libc.a(libc_a-__call_atexit.o)
 .data          0x00092eb0        0x0 c:/intelfpga_lite/23.1std/nios2eds/bin/gnu/h-x86_64-mingw32/bin/../lib/gcc/nios2-elf/12.3.1/../../../../../H-x86_64-mingw32/nios2-elf/lib/mhw-mulx\libc.a(libc_a-assert.o)
 .data          0x00092eb0        0x0 c:/intelfpga_lite/23.1std/nios2eds/bin/gnu/h-x86_64-mingw32/bin/../lib/gcc/nios2-elf/12.3.1/../../../../../H-x86_64-mingw32/nios2-elf/lib/mhw-mulx\libc.a(libc_a-callocr.o)
 .data          0x00092eb0        0x0 c:/intelfpga_lite/23.1std/nios2eds/bin/gnu/h-x86_64-mingw32/bin/../lib/gcc/nios2-elf/12.3.1/../../../../../H-x86_64-mingw32/nios2-elf/lib/mhw-mulx\libc.a(libc_a-fiprintf.o)
 .data          0x00092eb0        0x0 c:/intelfpga_lite/23.1std/nios2eds/bin/gnu/h-x86_64-mingw32/bin/../lib/gcc/nios2-elf/12.3.1/../../../../../H-x86_64-mingw32/nios2-elf/lib/mhw-mulx\libc.a(libc_a-vfiprintfr_1.o)
 .data          0x00092eb0        0x0 c:/intelfpga_lite/23.1std/nios2eds/bin/gnu/h-x86_64-mingw32/bin/../lib/gcc/nios2-elf/12.3.1/../../../../../H-x86_64-mingw32/nios2-elf/lib/mhw-mulx\libc.a(libc_a-errno.o)
 .data          0x00092eb0        0x0 c:/intelfpga_lite/23.1std/nios2eds/bin/gnu/h-x86_64-mingw32/bin/../lib/gcc/nios2-elf/12.3.1/../../../../../H-x86_64-mingw32/nios2-elf/lib/mhw-mulx\libc.a(libc_a-abort.o)
 .data          0x00092eb0        0x0 c:/intelfpga_lite/23.1std/nios2eds/bin/gnu/h-x86_64-mingw32/bin/../lib/gcc/nios2-elf/12.3.1/../../../../../H-x86_64-mingw32/nios2-elf/lib/mhw-mulx\libc.a(libc_a-signal.o)
 .data          0x00092eb0        0x0 c:/intelfpga_lite/23.1std/nios2eds/bin/gnu/h-x86_64-mingw32/bin/../lib/gcc/nios2-elf/12.3.1/../../../../../H-x86_64-mingw32/nios2-elf/lib/mhw-mulx\libc.a(libc_a-signalr.o)
 .data          0x00092eb0        0x0 c:/intelfpga_lite/23.1std/nios2eds/bin/gnu/h-x86_64-mingw32/bin/../lib/gcc/nios2-elf/12.3.1/mhw-mulx\libgcc.a(_udivdi3.o)
 .data          0x00092eb0        0x0 c:/intelfpga_lite/23.1std/nios2eds/bin/gnu/h-x86_64-mingw32/bin/../lib/gcc/nios2-elf/12.3.1/mhw-mulx\libgcc.a(_umoddi3.o)
 .data          0x00092eb0        0x0 c:/intelfpga_lite/23.1std/nios2eds/bin/gnu/h-x86_64-mingw32/bin/../lib/gcc/nios2-elf/12.3.1/mhw-mulx\libgcc.a(lib2-divmod.o)
 .data          0x00092eb0        0x0 c:/intelfpga_lite/23.1std/nios2eds/bin/gnu/h-x86_64-mingw32/bin/../lib/gcc/nios2-elf/12.3.1/mhw-mulx\libgcc.a(adddf3.o)
 .data          0x00092eb0        0x0 c:/intelfpga_lite/23.1std/nios2eds/bin/gnu/h-x86_64-mingw32/bin/../lib/gcc/nios2-elf/12.3.1/mhw-mulx\libgcc.a(divdf3.o)
 .data          0x00092eb0        0x0 c:/intelfpga_lite/23.1std/nios2eds/bin/gnu/h-x86_64-mingw32/bin/../lib/gcc/nios2-elf/12.3.1/mhw-mulx\libgcc.a(eqdf2.o)
 .data          0x00092eb0        0x0 c:/intelfpga_lite/23.1std/nios2eds/bin/gnu/h-x86_64-mingw32/bin/../lib/gcc/nios2-elf/12.3.1/mhw-mulx\libgcc.a(gedf2.o)
 .data          0x00092eb0        0x0 c:/intelfpga_lite/23.1std/nios2eds/bin/gnu/h-x86_64-mingw32/bin/../lib/gcc/nios2-elf/12.3.1/mhw-mulx\libgcc.a(ledf2.o)
 .data          0x00092eb0        0x0 c:/intelfpga_lite/23.1std/nios2eds/bin/gnu/h-x86_64-mingw32/bin/../lib/gcc/nios2-elf/12.3.1/mhw-mulx\libgcc.a(muldf3.o)
 .data          0x00092eb0        0x0 c:/intelfpga_lite/23.1std/nios2eds/bin/gnu/h-x86_64-mingw32/bin/../lib/gcc/nios2-elf/12.3.1/mhw-mulx\libgcc.a(subdf3.o)
 .data          0x00092eb0        0x0 c:/intelfpga_lite/23.1std/nios2eds/bin/gnu/h-x86_64-mingw32/bin/../lib/gcc/nios2-elf/12.3.1/mhw-mulx\libgcc.a(unorddf2.o)
 .data          0x00092eb0        0x0 c:/intelfpga_lite/23.1std/nios2eds/bin/gnu/h-x86_64-mingw32/bin/../lib/gcc/nios2-elf/12.3.1/mhw-mulx\libgcc.a(fixdfsi.o)
 .data          0x00092eb0        0x0 c:/intelfpga_lite/23.1std/nios2eds/bin/gnu/h-x86_64-mingw32/bin/../lib/gcc/nios2-elf/12.3.1/mhw-mulx\libgcc.a(floatsidf.o)
 .data          0x00092eb0        0x0 c:/intelfpga_lite/23.1std/nios2eds/bin/gnu/h-x86_64-mingw32/bin/../lib/gcc/nios2-elf/12.3.1/mhw-mulx\libgcc.a(floatunsidf.o)
 .data          0x00092eb0        0x0 c:/Users/Galileo/Projects/ELEC60011-fpga/system_template_de1_soc/software/hello_world2_bsp/\libhal_bsp.a(alt_close.o)
 .data          0x00092eb0      0x1a8 c:/Users/Galileo/Projects/ELEC60011-fpga/system_template_de1_soc/software/hello_world2_bsp/\libhal_bsp.a(alt_dev.o)
                0x00092eb0                alt_dev_null
                0x00092ed8                alt_fd_list
 .data          0x00093058        0x0 c:/Users/Galileo/Projects/ELEC60011-fpga/system_template_de1_soc/software/hello_world2_bsp/\libhal_bsp.a(alt_errno.o)
 .data          0x00093058        0x0 c:/Users/Galileo/Projects/ELEC60011-fpga/system_template_de1_soc/software/hello_world2_bsp/\libhal_bsp.a(alt_exit.o)
 .data          0x00093058        0x0 c:/Users/Galileo/Projects/ELEC60011-fpga/system_template_de1_soc/software/hello_world2_bsp/\libhal_bsp.a(alt_fstat.o)
 .data          0x00093058        0x0 c:/Users/Galileo/Projects/ELEC60011-fpga/system_template_de1_soc/software/hello_world2_bsp/\libhal_bsp.a(alt_getpid.o)
 .data          0x00093058        0x0 c:/Users/Galileo/Projects/ELEC60011-fpga/system_template_de1_soc/software/hello_world2_bsp/\libhal_bsp.a(alt_isatty.o)
 .data          0x00093058        0x0 c:/Users/Galileo/Projects/ELEC60011-fpga/system_template_de1_soc/software/hello_world2_bsp/\libhal_bsp.a(alt_kill.o)
 .data          0x00093058        0x0 c:/Users/Galileo/Projects/ELEC60011-fpga/system_template_de1_soc/software/hello_world2_bsp/\libhal_bsp.a(alt_load.o)
 .data          0x00093058        0x0 c:/Users/Galileo/Projects/ELEC60011-fpga/system_template_de1_soc/software/hello_world2_bsp/\libhal_bsp.a(alt_lseek.o)
 .data          0x00093058        0x0 c:/Users/Galileo/Projects/ELEC60011-fpga/system_template_de1_soc/software/hello_world2_bsp/\libhal_bsp.a(alt_main.o)
 .data          0x00093058        0x0 c:/Users/Galileo/Projects/ELEC60011-fpga/system_template_de1_soc/software/hello_world2_bsp/\libhal_bsp.a(alt_malloc_lock.o)
 .data          0x00093058        0x0 c:/Users/Galileo/Projects/ELEC60011-fpga/system_template_de1_soc/software/hello_world2_bsp/\libhal_bsp.a(alt_read.o)
 .data          0x00093058        0x0 c:/Users/Galileo/Projects/ELEC60011-fpga/system_template_de1_soc/software/hello_world2_bsp/\libhal_bsp.a(alt_release_fd.o)
 .data          0x00093058        0x0 c:/Users/Galileo/Projects/ELEC60011-fpga/system_template_de1_soc/software/hello_world2_bsp/\libhal_bsp.a(alt_sbrk.o)
 .data          0x00093058        0x0 c:/Users/Galileo/Projects/ELEC60011-fpga/system_template_de1_soc/software/hello_world2_bsp/\libhal_bsp.a(alt_times.o)
 .data          0x00093058        0x0 c:/Users/Galileo/Projects/ELEC60011-fpga/system_template_de1_soc/software/hello_world2_bsp/\libhal_bsp.a(alt_write.o)
 .data          0x00093058       0x2c c:/Users/Galileo/Projects/ELEC60011-fpga/system_template_de1_soc/software/hello_world2_bsp/\libhal_bsp.a(alt_sys_init.o)
 .data          0x00093084        0x0 c:/Users/Galileo/Projects/ELEC60011-fpga/system_template_de1_soc/software/hello_world2_bsp/\libhal_bsp.a(altera_avalon_jtag_uart_fd.o)
 .data          0x00093084        0x0 c:/Users/Galileo/Projects/ELEC60011-fpga/system_template_de1_soc/software/hello_world2_bsp/\libhal_bsp.a(altera_avalon_jtag_uart_read.o)
 .data          0x00093084        0x0 c:/Users/Galileo/Projects/ELEC60011-fpga/system_template_de1_soc/software/hello_world2_bsp/\libhal_bsp.a(altera_avalon_jtag_uart_write.o)
 .data          0x00093084        0x0 c:/Users/Galileo/Projects/ELEC60011-fpga/system_template_de1_soc/software/hello_world2_bsp/\libhal_bsp.a(altera_avalon_timer_sc.o)
 .data          0x00093084        0x0 c:/Users/Galileo/Projects/ELEC60011-fpga/system_template_de1_soc/software/hello_world2_bsp/\libhal_bsp.a(alt_dcache_flush_all.o)
 .data          0x00093084        0x0 c:/Users/Galileo/Projects/ELEC60011-fpga/system_template_de1_soc/software/hello_world2_bsp/\libhal_bsp.a(alt_dev_llist_insert.o)
 .data          0x00093084        0x0 c:/Users/Galileo/Projects/ELEC60011-fpga/system_template_de1_soc/software/hello_world2_bsp/\libhal_bsp.a(alt_icache_flush_all.o)
 .data          0x00093084        0x0 c:/Users/Galileo/Projects/ELEC60011-fpga/system_template_de1_soc/software/hello_world2_bsp/\libhal_bsp.a(alt_iic.o)
 .data          0x00093084        0x0 c:/Users/Galileo/Projects/ELEC60011-fpga/system_template_de1_soc/software/hello_world2_bsp/\libhal_bsp.a(alt_iic_isr_register.o)
 .data          0x00093084        0x0 c:/Users/Galileo/Projects/ELEC60011-fpga/system_template_de1_soc/software/hello_world2_bsp/\libhal_bsp.a(alt_io_redirect.o)
 .data          0x00093084        0x0 c:/Users/Galileo/Projects/ELEC60011-fpga/system_template_de1_soc/software/hello_world2_bsp/\libhal_bsp.a(alt_irq_entry.o)
 .data          0x00093084        0x0 c:/Users/Galileo/Projects/ELEC60011-fpga/system_template_de1_soc/software/hello_world2_bsp/\libhal_bsp.a(alt_irq_handler.o)
 .data          0x00093084        0x0 c:/Users/Galileo/Projects/ELEC60011-fpga/system_template_de1_soc/software/hello_world2_bsp/\libhal_bsp.a(alt_irq_vars.o)
 .data          0x00093084        0x0 c:/Users/Galileo/Projects/ELEC60011-fpga/system_template_de1_soc/software/hello_world2_bsp/\libhal_bsp.a(alt_open.o)
 .data          0x00093084        0x0 c:/Users/Galileo/Projects/ELEC60011-fpga/system_template_de1_soc/software/hello_world2_bsp/\libhal_bsp.a(alt_tick.o)
 .data          0x00093084        0x0 c:/Users/Galileo/Projects/ELEC60011-fpga/system_template_de1_soc/software/hello_world2_bsp/\libhal_bsp.a(altera_nios2_gen2_irq.o)
 .data          0x00093084        0x0 c:/Users/Galileo/Projects/ELEC60011-fpga/system_template_de1_soc/software/hello_world2_bsp/\libhal_bsp.a(alt_exception_entry.o)
 .data          0x00093084        0x0 c:/Users/Galileo/Projects/ELEC60011-fpga/system_template_de1_soc/software/hello_world2_bsp/\libhal_bsp.a(alt_find_dev.o)
 .data          0x00093084        0x0 c:/Users/Galileo/Projects/ELEC60011-fpga/system_template_de1_soc/software/hello_world2_bsp/\libhal_bsp.a(alt_find_file.o)
 .data          0x00093084        0x0 c:/Users/Galileo/Projects/ELEC60011-fpga/system_template_de1_soc/software/hello_world2_bsp/\libhal_bsp.a(alt_get_fd.o)
 .data          0x00093084        0x0 c:/Users/Galileo/Projects/ELEC60011-fpga/system_template_de1_soc/software/hello_world2_bsp/\libhal_bsp.a(alt_icache_flush.o)
 .data          0x00093084        0x0 c:/Users/Galileo/Projects/ELEC60011-fpga/system_template_de1_soc/software/hello_world2_bsp/\libhal_bsp.a(alt_instruction_exception_entry.o)
 .data          0x00093084        0x0 c:/intelfpga_lite/23.1std/nios2eds/bin/gnu/h-x86_64-mingw32/bin/../lib/gcc/nios2-elf/12.3.1/../../../../../H-x86_64-mingw32/nios2-elf/lib/mhw-mulx\libc.a(libc_a-memcmp.o)
                0x0009b084                        _gp = ABSOLUTE ((. + 0x8000))
                [!provide]                        PROVIDE (gp = _gp)
 *(.rwdata .rwdata.*)
 *(.sdata .sdata.* .gnu.linkonce.s.*)
 .sdata._impure_ptr
                0x00093084        0x4 c:/intelfpga_lite/23.1std/nios2eds/bin/gnu/h-x86_64-mingw32/bin/../lib/gcc/nios2-elf/12.3.1/../../../../../H-x86_64-mingw32/nios2-elf/lib/mhw-mulx\libc.a(libc_a-impure.o)
                0x00093084                _impure_ptr
 .sdata.__malloc_sbrk_base
                0x00093088        0x4 c:/intelfpga_lite/23.1std/nios2eds/bin/gnu/h-x86_64-mingw32/bin/../lib/gcc/nios2-elf/12.3.1/../../../../../H-x86_64-mingw32/nios2-elf/lib/mhw-mulx\libc.a(libc_a-mallocr.o)
                0x00093088                __malloc_sbrk_base
 .sdata.__malloc_trim_threshold
                0x0009308c        0x4 c:/intelfpga_lite/23.1std/nios2eds/bin/gnu/h-x86_64-mingw32/bin/../lib/gcc/nios2-elf/12.3.1/../../../../../H-x86_64-mingw32/nios2-elf/lib/mhw-mulx\libc.a(libc_a-mallocr.o)
                0x0009308c                __malloc_trim_threshold
 .sdata         0x00093090       0x14 c:/Users/Galileo/Projects/ELEC60011-fpga/system_template_de1_soc/software/hello_world2_bsp/\libhal_bsp.a(alt_dev.o)
                0x00093090                alt_fs_list
                0x00093098                alt_dev_list
                0x000930a0                alt_max_fd
 .sdata         0x000930a4        0x4 c:/Users/Galileo/Projects/ELEC60011-fpga/system_template_de1_soc/software/hello_world2_bsp/\libhal_bsp.a(alt_errno.o)
                0x000930a4                alt_errno
 .sdata         0x000930a8        0x4 c:/Users/Galileo/Projects/ELEC60011-fpga/system_template_de1_soc/software/hello_world2_bsp/\libhal_bsp.a(alt_sbrk.o)
 .sdata         0x000930ac        0x4 c:/Users/Galileo/Projects/ELEC60011-fpga/system_template_de1_soc/software/hello_world2_bsp/\libhal_bsp.a(alt_irq_vars.o)
                0x000930ac                alt_priority_mask
 .sdata         0x000930b0        0x8 c:/Users/Galileo/Projects/ELEC60011-fpga/system_template_de1_soc/software/hello_world2_bsp/\libhal_bsp.a(alt_tick.o)
                0x000930b0                alt_alarm_list
 *(.sdata2 .sdata2.* .gnu.linkonce.s2.*)
                0x000930b8                        . = ALIGN (0x4)
                0x000930b8                        _edata = ABSOLUTE (.)
                [!provide]                        PROVIDE (edata = ABSOLUTE (.))
                0x000930b8                        PROVIDE (__ram_rwdata_end = ABSOLUTE (.))
                0x000930b8                        PROVIDE (__flash_rwdata_start = LOADADDR (.rwdata))

.bss            0x0009395c      0x29c
                0x0009395c                        __bss_start = ABSOLUTE (.)
                [!provide]                        PROVIDE (__sbss_start = ABSOLUTE (.))
                [!provide]                        PROVIDE (___sbss_start = ABSOLUTE (.))
 *(.dynsbss)
 *(.sbss .sbss.* .gnu.linkonce.sb.*)
 .sbss._PathLocale
                0x0009395c        0x4 c:/intelfpga_lite/23.1std/nios2eds/bin/gnu/h-x86_64-mingw32/bin/../lib/gcc/nios2-elf/12.3.1/../../../../../H-x86_64-mingw32/nios2-elf/lib/mhw-mulx\libc.a(libc_a-locale.o)
                0x0009395c                _PathLocale
 .sbss.errno    0x00093960        0x4 c:/intelfpga_lite/23.1std/nios2eds/bin/gnu/h-x86_64-mingw32/bin/../lib/gcc/nios2-elf/12.3.1/../../../../../H-x86_64-mingw32/nios2-elf/lib/mhw-mulx\libc.a(libc_a-reent.o)
                0x00093960                errno
 .sbss.__stdio_exit_handler
                0x00093964        0x4 c:/intelfpga_lite/23.1std/nios2eds/bin/gnu/h-x86_64-mingw32/bin/../lib/gcc/nios2-elf/12.3.1/../../../../../H-x86_64-mingw32/nios2-elf/lib/mhw-mulx\libc.a(libc_a-exit.o)
                0x00093964                __stdio_exit_handler
 .sbss.__malloc_max_total_mem
                0x00093968        0x4 c:/intelfpga_lite/23.1std/nios2eds/bin/gnu/h-x86_64-mingw32/bin/../lib/gcc/nios2-elf/12.3.1/../../../../../H-x86_64-mingw32/nios2-elf/lib/mhw-mulx\libc.a(libc_a-mallocr.o)
                0x00093968                __malloc_max_total_mem
 .sbss.__malloc_max_sbrked_mem
                0x0009396c        0x4 c:/intelfpga_lite/23.1std/nios2eds/bin/gnu/h-x86_64-mingw32/bin/../lib/gcc/nios2-elf/12.3.1/../../../../../H-x86_64-mingw32/nios2-elf/lib/mhw-mulx\libc.a(libc_a-mallocr.o)
                0x0009396c                __malloc_max_sbrked_mem
 .sbss.__malloc_top_pad
                0x00093970        0x4 c:/intelfpga_lite/23.1std/nios2eds/bin/gnu/h-x86_64-mingw32/bin/../lib/gcc/nios2-elf/12.3.1/../../../../../H-x86_64-mingw32/nios2-elf/lib/mhw-mulx\libc.a(libc_a-mallocr.o)
                0x00093970                __malloc_top_pad
 .sbss.__atexit
                0x00093974        0x4 c:/intelfpga_lite/23.1std/nios2eds/bin/gnu/h-x86_64-mingw32/bin/../lib/gcc/nios2-elf/12.3.1/../../../../../H-x86_64-mingw32/nios2-elf/lib/mhw-mulx\libc.a(libc_a-__call_atexit.o)
                0x00093974                __atexit
 .sbss          0x00093978        0xc c:/Users/Galileo/Projects/ELEC60011-fpga/system_template_de1_soc/software/hello_world2_bsp/\libhal_bsp.a(alt_main.o)
                0x00093978                alt_argc
                0x0009397c                alt_argv
                0x00093980                alt_envp
 .sbss          0x00093984        0x4 c:/Users/Galileo/Projects/ELEC60011-fpga/system_template_de1_soc/software/hello_world2_bsp/\libhal_bsp.a(alt_irq_vars.o)
                0x00093984                alt_irq_active
 .sbss          0x00093988        0xc c:/Users/Galileo/Projects/ELEC60011-fpga/system_template_de1_soc/software/hello_world2_bsp/\libhal_bsp.a(alt_tick.o)
                0x00093988                _alt_tick_rate
                0x0009398c                _alt_nticks
 .sbss          0x00093994        0x4 c:/Users/Galileo/Projects/ELEC60011-fpga/system_template_de1_soc/software/hello_world2_bsp/\libhal_bsp.a(alt_instruction_exception_entry.o)
                0x00093994                alt_instruction_exception_handler
 *(.sbss2 .sbss2.* .gnu.linkonce.sb2.*)
 *(.scommon)
                [!provide]                        PROVIDE (__sbss_end = ABSOLUTE (.))
                [!provide]                        PROVIDE (___sbss_end = ABSOLUTE (.))
 *(.dynbss)
 *(.bss .bss.* .gnu.linkonce.b.*)
 .bss           0x00093998        0x0 c:/Users/Galileo/Projects/ELEC60011-fpga/system_template_de1_soc/software/hello_world2_bsp//obj/HAL/src/crt0.o
 .bss           0x00093998        0x0 obj/default/hello_world.o
 .bss           0x00093998        0x0 c:/intelfpga_lite/23.1std/nios2eds/bin/gnu/h-x86_64-mingw32/bin/../lib/gcc/nios2-elf/12.3.1/../../../../../H-x86_64-mingw32/nios2-elf/lib/mhw-mulx\libm.a(libm_a-sf_cos.o)
 .bss           0x00093998        0x0 c:/intelfpga_lite/23.1std/nios2eds/bin/gnu/h-x86_64-mingw32/bin/../lib/gcc/nios2-elf/12.3.1/../../../../../H-x86_64-mingw32/nios2-elf/lib/mhw-mulx\libm.a(libm_a-kf_cos.o)
 .bss           0x00093998        0x0 c:/intelfpga_lite/23.1std/nios2eds/bin/gnu/h-x86_64-mingw32/bin/../lib/gcc/nios2-elf/12.3.1/../../../../../H-x86_64-mingw32/nios2-elf/lib/mhw-mulx\libm.a(libm_a-kf_sin.o)
 .bss           0x00093998        0x0 c:/intelfpga_lite/23.1std/nios2eds/bin/gnu/h-x86_64-mingw32/bin/../lib/gcc/nios2-elf/12.3.1/../../../../../H-x86_64-mingw32/nios2-elf/lib/mhw-mulx\libm.a(libm_a-ef_rem_pio2.o)
 .bss           0x00093998        0x0 c:/intelfpga_lite/23.1std/nios2eds/bin/gnu/h-x86_64-mingw32/bin/../lib/gcc/nios2-elf/12.3.1/../../../../../H-x86_64-mingw32/nios2-elf/lib/mhw-mulx\libm.a(libm_a-sf_fabs.o)
 .bss           0x00093998        0x0 c:/intelfpga_lite/23.1std/nios2eds/bin/gnu/h-x86_64-mingw32/bin/../lib/gcc/nios2-elf/12.3.1/../../../../../H-x86_64-mingw32/nios2-elf/lib/mhw-mulx\libm.a(libm_a-kf_rem_pio2.o)
 .bss           0x00093998        0x0 c:/intelfpga_lite/23.1std/nios2eds/bin/gnu/h-x86_64-mingw32/bin/../lib/gcc/nios2-elf/12.3.1/../../../../../H-x86_64-mingw32/nios2-elf/lib/mhw-mulx\libm.a(libm_a-sf_floor.o)
 .bss           0x00093998        0x0 c:/intelfpga_lite/23.1std/nios2eds/bin/gnu/h-x86_64-mingw32/bin/../lib/gcc/nios2-elf/12.3.1/../../../../../H-x86_64-mingw32/nios2-elf/lib/mhw-mulx\libm.a(libm_a-sf_scalbn.o)
 .bss           0x00093998        0x0 c:/intelfpga_lite/23.1std/nios2eds/bin/gnu/h-x86_64-mingw32/bin/../lib/gcc/nios2-elf/12.3.1/mhw-mulx\libgcc.a(addsf3.o)
 .bss           0x00093998        0x0 c:/intelfpga_lite/23.1std/nios2eds/bin/gnu/h-x86_64-mingw32/bin/../lib/gcc/nios2-elf/12.3.1/mhw-mulx\libgcc.a(divsf3.o)
 .bss           0x00093998        0x0 c:/intelfpga_lite/23.1std/nios2eds/bin/gnu/h-x86_64-mingw32/bin/../lib/gcc/nios2-elf/12.3.1/mhw-mulx\libgcc.a(eqsf2.o)
 .bss           0x00093998        0x0 c:/intelfpga_lite/23.1std/nios2eds/bin/gnu/h-x86_64-mingw32/bin/../lib/gcc/nios2-elf/12.3.1/mhw-mulx\libgcc.a(gesf2.o)
 .bss           0x00093998        0x0 c:/intelfpga_lite/23.1std/nios2eds/bin/gnu/h-x86_64-mingw32/bin/../lib/gcc/nios2-elf/12.3.1/mhw-mulx\libgcc.a(mulsf3.o)
 .bss           0x00093998        0x0 c:/intelfpga_lite/23.1std/nios2eds/bin/gnu/h-x86_64-mingw32/bin/../lib/gcc/nios2-elf/12.3.1/mhw-mulx\libgcc.a(subsf3.o)
 .bss           0x00093998        0x0 c:/intelfpga_lite/23.1std/nios2eds/bin/gnu/h-x86_64-mingw32/bin/../lib/gcc/nios2-elf/12.3.1/mhw-mulx\libgcc.a(fixsfsi.o)
 .bss           0x00093998        0x0 c:/intelfpga_lite/23.1std/nios2eds/bin/gnu/h-x86_64-mingw32/bin/../lib/gcc/nios2-elf/12.3.1/mhw-mulx\libgcc.a(floatsisf.o)
 .bss           0x00093998        0x0 c:/intelfpga_lite/23.1std/nios2eds/bin/gnu/h-x86_64-mingw32/bin/../lib/gcc/nios2-elf/12.3.1/mhw-mulx\libgcc.a(_clzsi2.o)
 .bss           0x00093998        0x0 c:/intelfpga_lite/23.1std/nios2eds/bin/gnu/h-x86_64-mingw32/bin/../lib/gcc/nios2-elf/12.3.1/mhw-mulx\libgcc.a(_clz.o)
 .bss           0x00093998        0x0 c:/intelfpga_lite/23.1std/nios2eds/bin/gnu/h-x86_64-mingw32/bin/../lib/gcc/nios2-elf/12.3.1/../../../../../H-x86_64-mingw32/nios2-elf/lib/mhw-mulx\libc.a(libc_a-rand.o)
 .bss           0x00093998        0x0 c:/intelfpga_lite/23.1std/nios2eds/bin/gnu/h-x86_64-mingw32/bin/../lib/gcc/nios2-elf/12.3.1/../../../../../H-x86_64-mingw32/nios2-elf/lib/mhw-mulx\libc.a(libc_a-printf.o)
 .bss           0x00093998        0x0 c:/intelfpga_lite/23.1std/nios2eds/bin/gnu/h-x86_64-mingw32/bin/../lib/gcc/nios2-elf/12.3.1/../../../../../H-x86_64-mingw32/nios2-elf/lib/mhw-mulx\libc.a(libc_a-puts.o)
 .bss           0x00093998        0x0 c:/intelfpga_lite/23.1std/nios2eds/bin/gnu/h-x86_64-mingw32/bin/../lib/gcc/nios2-elf/12.3.1/../../../../../H-x86_64-mingw32/nios2-elf/lib/mhw-mulx\libc.a(libc_a-strlen.o)
 .bss           0x00093998        0x0 c:/intelfpga_lite/23.1std/nios2eds/bin/gnu/h-x86_64-mingw32/bin/../lib/gcc/nios2-elf/12.3.1/../../../../../H-x86_64-mingw32/nios2-elf/lib/mhw-mulx\libc.a(libc_a-impure.o)
 .bss           0x00093998        0x0 c:/intelfpga_lite/23.1std/nios2eds/bin/gnu/h-x86_64-mingw32/bin/../lib/gcc/nios2-elf/12.3.1/../../../../../H-x86_64-mingw32/nios2-elf/lib/mhw-mulx\libc.a(libc_a-vfprintf.o)
 .bss           0x00093998        0x0 c:/intelfpga_lite/23.1std/nios2eds/bin/gnu/h-x86_64-mingw32/bin/../lib/gcc/nios2-elf/12.3.1/../../../../../H-x86_64-mingw32/nios2-elf/lib/mhw-mulx\libc.a(libc_a-vfiprintf.o)
 .bss           0x00093998        0x0 c:/intelfpga_lite/23.1std/nios2eds/bin/gnu/h-x86_64-mingw32/bin/../lib/gcc/nios2-elf/12.3.1/../../../../../H-x86_64-mingw32/nios2-elf/lib/mhw-mulx\libc.a(libc_a-fflush.o)
 .bss           0x00093998        0x0 c:/intelfpga_lite/23.1std/nios2eds/bin/gnu/h-x86_64-mingw32/bin/../lib/gcc/nios2-elf/12.3.1/../../../../../H-x86_64-mingw32/nios2-elf/lib/mhw-mulx\libc.a(libc_a-findfp.o)
 .bss.__sf      0x00093998      0x138 c:/intelfpga_lite/23.1std/nios2eds/bin/gnu/h-x86_64-mingw32/bin/../lib/gcc/nios2-elf/12.3.1/../../../../../H-x86_64-mingw32/nios2-elf/lib/mhw-mulx\libc.a(libc_a-findfp.o)
                0x00093998                __sf
 .bss           0x00093ad0        0x0 c:/intelfpga_lite/23.1std/nios2eds/bin/gnu/h-x86_64-mingw32/bin/../lib/gcc/nios2-elf/12.3.1/../../../../../H-x86_64-mingw32/nios2-elf/lib/mhw-mulx\libc.a(libc_a-fvwrite.o)
 .bss           0x00093ad0        0x0 c:/intelfpga_lite/23.1std/nios2eds/bin/gnu/h-x86_64-mingw32/bin/../lib/gcc/nios2-elf/12.3.1/../../../../../H-x86_64-mingw32/nios2-elf/lib/mhw-mulx\libc.a(libc_a-fwalk.o)
 .bss           0x00093ad0        0x0 c:/intelfpga_lite/23.1std/nios2eds/bin/gnu/h-x86_64-mingw32/bin/../lib/gcc/nios2-elf/12.3.1/../../../../../H-x86_64-mingw32/nios2-elf/lib/mhw-mulx\libc.a(libc_a-stdio.o)
 .bss           0x00093ad0        0x0 c:/intelfpga_lite/23.1std/nios2eds/bin/gnu/h-x86_64-mingw32/bin/../lib/gcc/nios2-elf/12.3.1/../../../../../H-x86_64-mingw32/nios2-elf/lib/mhw-mulx\libc.a(libc_a-wsetup.o)
 .bss           0x00093ad0        0x0 c:/intelfpga_lite/23.1std/nios2eds/bin/gnu/h-x86_64-mingw32/bin/../lib/gcc/nios2-elf/12.3.1/../../../../../H-x86_64-mingw32/nios2-elf/lib/mhw-mulx\libc.a(libc_a-fputwc.o)
 .bss           0x00093ad0        0x0 c:/intelfpga_lite/23.1std/nios2eds/bin/gnu/h-x86_64-mingw32/bin/../lib/gcc/nios2-elf/12.3.1/../../../../../H-x86_64-mingw32/nios2-elf/lib/mhw-mulx\libc.a(libc_a-memchr.o)
 .bss           0x00093ad0        0x0 c:/intelfpga_lite/23.1std/nios2eds/bin/gnu/h-x86_64-mingw32/bin/../lib/gcc/nios2-elf/12.3.1/../../../../../H-x86_64-mingw32/nios2-elf/lib/mhw-mulx\libc.a(libc_a-memcpy.o)
 .bss           0x00093ad0        0x0 c:/intelfpga_lite/23.1std/nios2eds/bin/gnu/h-x86_64-mingw32/bin/../lib/gcc/nios2-elf/12.3.1/../../../../../H-x86_64-mingw32/nios2-elf/lib/mhw-mulx\libc.a(libc_a-memmove.o)
 .bss           0x00093ad0        0x0 c:/intelfpga_lite/23.1std/nios2eds/bin/gnu/h-x86_64-mingw32/bin/../lib/gcc/nios2-elf/12.3.1/../../../../../H-x86_64-mingw32/nios2-elf/lib/mhw-mulx\libc.a(libc_a-memset.o)
 .bss           0x00093ad0        0x0 c:/intelfpga_lite/23.1std/nios2eds/bin/gnu/h-x86_64-mingw32/bin/../lib/gcc/nios2-elf/12.3.1/../../../../../H-x86_64-mingw32/nios2-elf/lib/mhw-mulx\libc.a(libc_a-locale.o)
 .bss           0x00093ad0        0x0 c:/intelfpga_lite/23.1std/nios2eds/bin/gnu/h-x86_64-mingw32/bin/../lib/gcc/nios2-elf/12.3.1/../../../../../H-x86_64-mingw32/nios2-elf/lib/mhw-mulx\libc.a(libc_a-localeconv.o)
 .bss           0x00093ad0        0x0 c:/intelfpga_lite/23.1std/nios2eds/bin/gnu/h-x86_64-mingw32/bin/../lib/gcc/nios2-elf/12.3.1/../../../../../H-x86_64-mingw32/nios2-elf/lib/mhw-mulx\libc.a(libc_a-closer.o)
 .bss           0x00093ad0        0x0 c:/intelfpga_lite/23.1std/nios2eds/bin/gnu/h-x86_64-mingw32/bin/../lib/gcc/nios2-elf/12.3.1/../../../../../H-x86_64-mingw32/nios2-elf/lib/mhw-mulx\libc.a(libc_a-reent.o)
 .bss           0x00093ad0        0x0 c:/intelfpga_lite/23.1std/nios2eds/bin/gnu/h-x86_64-mingw32/bin/../lib/gcc/nios2-elf/12.3.1/../../../../../H-x86_64-mingw32/nios2-elf/lib/mhw-mulx\libc.a(libc_a-lseekr.o)
 .bss           0x00093ad0        0x0 c:/intelfpga_lite/23.1std/nios2eds/bin/gnu/h-x86_64-mingw32/bin/../lib/gcc/nios2-elf/12.3.1/../../../../../H-x86_64-mingw32/nios2-elf/lib/mhw-mulx\libc.a(libc_a-readr.o)
 .bss           0x00093ad0        0x0 c:/intelfpga_lite/23.1std/nios2eds/bin/gnu/h-x86_64-mingw32/bin/../lib/gcc/nios2-elf/12.3.1/../../../../../H-x86_64-mingw32/nios2-elf/lib/mhw-mulx\libc.a(libc_a-writer.o)
 .bss           0x00093ad0        0x0 c:/intelfpga_lite/23.1std/nios2eds/bin/gnu/h-x86_64-mingw32/bin/../lib/gcc/nios2-elf/12.3.1/../../../../../H-x86_64-mingw32/nios2-elf/lib/mhw-mulx\libc.a(libc_a-dtoa.o)
 .bss           0x00093ad0        0x0 c:/intelfpga_lite/23.1std/nios2eds/bin/gnu/h-x86_64-mingw32/bin/../lib/gcc/nios2-elf/12.3.1/../../../../../H-x86_64-mingw32/nios2-elf/lib/mhw-mulx\libc.a(libc_a-exit.o)
 .bss           0x00093ad0        0x0 c:/intelfpga_lite/23.1std/nios2eds/bin/gnu/h-x86_64-mingw32/bin/../lib/gcc/nios2-elf/12.3.1/../../../../../H-x86_64-mingw32/nios2-elf/lib/mhw-mulx\libc.a(libc_a-freer.o)
 .bss           0x00093ad0        0x0 c:/intelfpga_lite/23.1std/nios2eds/bin/gnu/h-x86_64-mingw32/bin/../lib/gcc/nios2-elf/12.3.1/../../../../../H-x86_64-mingw32/nios2-elf/lib/mhw-mulx\libc.a(libc_a-mallocr.o)
 .bss.__malloc_current_mallinfo
                0x00093ad0       0x28 c:/intelfpga_lite/23.1std/nios2eds/bin/gnu/h-x86_64-mingw32/bin/../lib/gcc/nios2-elf/12.3.1/../../../../../H-x86_64-mingw32/nios2-elf/lib/mhw-mulx\libc.a(libc_a-mallocr.o)
                0x00093ad0                __malloc_current_mallinfo
 .bss           0x00093af8        0x0 c:/intelfpga_lite/23.1std/nios2eds/bin/gnu/h-x86_64-mingw32/bin/../lib/gcc/nios2-elf/12.3.1/../../../../../H-x86_64-mingw32/nios2-elf/lib/mhw-mulx\libc.a(libc_a-mbtowc_r.o)
 .bss           0x00093af8        0x0 c:/intelfpga_lite/23.1std/nios2eds/bin/gnu/h-x86_64-mingw32/bin/../lib/gcc/nios2-elf/12.3.1/../../../../../H-x86_64-mingw32/nios2-elf/lib/mhw-mulx\libc.a(libc_a-mprec.o)
 .bss           0x00093af8        0x0 c:/intelfpga_lite/23.1std/nios2eds/bin/gnu/h-x86_64-mingw32/bin/../lib/gcc/nios2-elf/12.3.1/../../../../../H-x86_64-mingw32/nios2-elf/lib/mhw-mulx\libc.a(libc_a-reallocr.o)
 .bss           0x00093af8        0x0 c:/intelfpga_lite/23.1std/nios2eds/bin/gnu/h-x86_64-mingw32/bin/../lib/gcc/nios2-elf/12.3.1/../../../../../H-x86_64-mingw32/nios2-elf/lib/mhw-mulx\libc.a(libc_a-wctomb_r.o)
 .bss           0x00093af8        0x0 c:/intelfpga_lite/23.1std/nios2eds/bin/gnu/h-x86_64-mingw32/bin/../lib/gcc/nios2-elf/12.3.1/../../../../../H-x86_64-mingw32/nios2-elf/lib/mhw-mulx\libc.a(libc_a-wcrtomb.o)
 .bss           0x00093af8        0x0 c:/intelfpga_lite/23.1std/nios2eds/bin/gnu/h-x86_64-mingw32/bin/../lib/gcc/nios2-elf/12.3.1/../../../../../H-x86_64-mingw32/nios2-elf/lib/mhw-mulx\libc.a(libc_a-ctype_.o)
 .bss           0x00093af8        0x0 c:/intelfpga_lite/23.1std/nios2eds/bin/gnu/h-x86_64-mingw32/bin/../lib/gcc/nios2-elf/12.3.1/../../../../../H-x86_64-mingw32/nios2-elf/lib/mhw-mulx\libc.a(libc_a-fclose.o)
 .bss           0x00093af8        0x0 c:/intelfpga_lite/23.1std/nios2eds/bin/gnu/h-x86_64-mingw32/bin/../lib/gcc/nios2-elf/12.3.1/../../../../../H-x86_64-mingw32/nios2-elf/lib/mhw-mulx\libc.a(libc_a-makebuf.o)
 .bss           0x00093af8        0x0 c:/intelfpga_lite/23.1std/nios2eds/bin/gnu/h-x86_64-mingw32/bin/../lib/gcc/nios2-elf/12.3.1/../../../../../H-x86_64-mingw32/nios2-elf/lib/mhw-mulx\libc.a(libc_a-wbuf.o)
 .bss           0x00093af8        0x0 c:/intelfpga_lite/23.1std/nios2eds/bin/gnu/h-x86_64-mingw32/bin/../lib/gcc/nios2-elf/12.3.1/../../../../../H-x86_64-mingw32/nios2-elf/lib/mhw-mulx\libc.a(libc_a-strcmp.o)
 .bss           0x00093af8        0x0 c:/intelfpga_lite/23.1std/nios2eds/bin/gnu/h-x86_64-mingw32/bin/../lib/gcc/nios2-elf/12.3.1/../../../../../H-x86_64-mingw32/nios2-elf/lib/mhw-mulx\libc.a(libc_a-fstatr.o)
 .bss           0x00093af8        0x0 c:/intelfpga_lite/23.1std/nios2eds/bin/gnu/h-x86_64-mingw32/bin/../lib/gcc/nios2-elf/12.3.1/../../../../../H-x86_64-mingw32/nios2-elf/lib/mhw-mulx\libc.a(libc_a-isattyr.o)
 .bss           0x00093af8        0x0 c:/intelfpga_lite/23.1std/nios2eds/bin/gnu/h-x86_64-mingw32/bin/../lib/gcc/nios2-elf/12.3.1/../../../../../H-x86_64-mingw32/nios2-elf/lib/mhw-mulx\libc.a(libc_a-sbrkr.o)
 .bss           0x00093af8        0x0 c:/intelfpga_lite/23.1std/nios2eds/bin/gnu/h-x86_64-mingw32/bin/../lib/gcc/nios2-elf/12.3.1/../../../../../H-x86_64-mingw32/nios2-elf/lib/mhw-mulx\libc.a(libc_a-__call_atexit.o)
 .bss           0x00093af8        0x0 c:/intelfpga_lite/23.1std/nios2eds/bin/gnu/h-x86_64-mingw32/bin/../lib/gcc/nios2-elf/12.3.1/../../../../../H-x86_64-mingw32/nios2-elf/lib/mhw-mulx\libc.a(libc_a-assert.o)
 .bss           0x00093af8        0x0 c:/intelfpga_lite/23.1std/nios2eds/bin/gnu/h-x86_64-mingw32/bin/../lib/gcc/nios2-elf/12.3.1/../../../../../H-x86_64-mingw32/nios2-elf/lib/mhw-mulx\libc.a(libc_a-callocr.o)
 .bss           0x00093af8        0x0 c:/intelfpga_lite/23.1std/nios2eds/bin/gnu/h-x86_64-mingw32/bin/../lib/gcc/nios2-elf/12.3.1/../../../../../H-x86_64-mingw32/nios2-elf/lib/mhw-mulx\libc.a(libc_a-fiprintf.o)
 .bss           0x00093af8        0x0 c:/intelfpga_lite/23.1std/nios2eds/bin/gnu/h-x86_64-mingw32/bin/../lib/gcc/nios2-elf/12.3.1/../../../../../H-x86_64-mingw32/nios2-elf/lib/mhw-mulx\libc.a(libc_a-vfiprintfr_1.o)
 .bss           0x00093af8        0x0 c:/intelfpga_lite/23.1std/nios2eds/bin/gnu/h-x86_64-mingw32/bin/../lib/gcc/nios2-elf/12.3.1/../../../../../H-x86_64-mingw32/nios2-elf/lib/mhw-mulx\libc.a(libc_a-errno.o)
 .bss           0x00093af8        0x0 c:/intelfpga_lite/23.1std/nios2eds/bin/gnu/h-x86_64-mingw32/bin/../lib/gcc/nios2-elf/12.3.1/../../../../../H-x86_64-mingw32/nios2-elf/lib/mhw-mulx\libc.a(libc_a-abort.o)
 .bss           0x00093af8        0x0 c:/intelfpga_lite/23.1std/nios2eds/bin/gnu/h-x86_64-mingw32/bin/../lib/gcc/nios2-elf/12.3.1/../../../../../H-x86_64-mingw32/nios2-elf/lib/mhw-mulx\libc.a(libc_a-signal.o)
 .bss           0x00093af8        0x0 c:/intelfpga_lite/23.1std/nios2eds/bin/gnu/h-x86_64-mingw32/bin/../lib/gcc/nios2-elf/12.3.1/../../../../../H-x86_64-mingw32/nios2-elf/lib/mhw-mulx\libc.a(libc_a-signalr.o)
 .bss           0x00093af8        0x0 c:/intelfpga_lite/23.1std/nios2eds/bin/gnu/h-x86_64-mingw32/bin/../lib/gcc/nios2-elf/12.3.1/mhw-mulx\libgcc.a(_udivdi3.o)
 .bss           0x00093af8        0x0 c:/intelfpga_lite/23.1std/nios2eds/bin/gnu/h-x86_64-mingw32/bin/../lib/gcc/nios2-elf/12.3.1/mhw-mulx\libgcc.a(_umoddi3.o)
 .bss           0x00093af8        0x0 c:/intelfpga_lite/23.1std/nios2eds/bin/gnu/h-x86_64-mingw32/bin/../lib/gcc/nios2-elf/12.3.1/mhw-mulx\libgcc.a(lib2-divmod.o)
 .bss           0x00093af8        0x0 c:/intelfpga_lite/23.1std/nios2eds/bin/gnu/h-x86_64-mingw32/bin/../lib/gcc/nios2-elf/12.3.1/mhw-mulx\libgcc.a(adddf3.o)
 .bss           0x00093af8        0x0 c:/intelfpga_lite/23.1std/nios2eds/bin/gnu/h-x86_64-mingw32/bin/../lib/gcc/nios2-elf/12.3.1/mhw-mulx\libgcc.a(divdf3.o)
 .bss           0x00093af8        0x0 c:/intelfpga_lite/23.1std/nios2eds/bin/gnu/h-x86_64-mingw32/bin/../lib/gcc/nios2-elf/12.3.1/mhw-mulx\libgcc.a(eqdf2.o)
 .bss           0x00093af8        0x0 c:/intelfpga_lite/23.1std/nios2eds/bin/gnu/h-x86_64-mingw32/bin/../lib/gcc/nios2-elf/12.3.1/mhw-mulx\libgcc.a(gedf2.o)
 .bss           0x00093af8        0x0 c:/intelfpga_lite/23.1std/nios2eds/bin/gnu/h-x86_64-mingw32/bin/../lib/gcc/nios2-elf/12.3.1/mhw-mulx\libgcc.a(ledf2.o)
 .bss           0x00093af8        0x0 c:/intelfpga_lite/23.1std/nios2eds/bin/gnu/h-x86_64-mingw32/bin/../lib/gcc/nios2-elf/12.3.1/mhw-mulx\libgcc.a(muldf3.o)
 .bss           0x00093af8        0x0 c:/intelfpga_lite/23.1std/nios2eds/bin/gnu/h-x86_64-mingw32/bin/../lib/gcc/nios2-elf/12.3.1/mhw-mulx\libgcc.a(subdf3.o)
 .bss           0x00093af8        0x0 c:/intelfpga_lite/23.1std/nios2eds/bin/gnu/h-x86_64-mingw32/bin/../lib/gcc/nios2-elf/12.3.1/mhw-mulx\libgcc.a(unorddf2.o)
 .bss           0x00093af8        0x0 c:/intelfpga_lite/23.1std/nios2eds/bin/gnu/h-x86_64-mingw32/bin/../lib/gcc/nios2-elf/12.3.1/mhw-mulx\libgcc.a(fixdfsi.o)
 .bss           0x00093af8        0x0 c:/intelfpga_lite/23.1std/nios2eds/bin/gnu/h-x86_64-mingw32/bin/../lib/gcc/nios2-elf/12.3.1/mhw-mulx\libgcc.a(floatsidf.o)
 .bss           0x00093af8        0x0 c:/intelfpga_lite/23.1std/nios2eds/bin/gnu/h-x86_64-mingw32/bin/../lib/gcc/nios2-elf/12.3.1/mhw-mulx\libgcc.a(floatunsidf.o)
 .bss           0x00093af8        0x0 c:/Users/Galileo/Projects/ELEC60011-fpga/system_template_de1_soc/software/hello_world2_bsp/\libhal_bsp.a(alt_close.o)
 .bss           0x00093af8        0x0 c:/Users/Galileo/Projects/ELEC60011-fpga/system_template_de1_soc/software/hello_world2_bsp/\libhal_bsp.a(alt_dev.o)
 .bss           0x00093af8        0x0 c:/Users/Galileo/Projects/ELEC60011-fpga/system_template_de1_soc/software/hello_world2_bsp/\libhal_bsp.a(alt_errno.o)
 .bss           0x00093af8        0x0 c:/Users/Galileo/Projects/ELEC60011-fpga/system_template_de1_soc/software/hello_world2_bsp/\libhal_bsp.a(alt_exit.o)
 .bss           0x00093af8        0x0 c:/Users/Galileo/Projects/ELEC60011-fpga/system_template_de1_soc/software/hello_world2_bsp/\libhal_bsp.a(alt_fstat.o)
 .bss           0x00093af8        0x0 c:/Users/Galileo/Projects/ELEC60011-fpga/system_template_de1_soc/software/hello_world2_bsp/\libhal_bsp.a(alt_getpid.o)
 .bss           0x00093af8        0x0 c:/Users/Galileo/Projects/ELEC60011-fpga/system_template_de1_soc/software/hello_world2_bsp/\libhal_bsp.a(alt_isatty.o)
 .bss           0x00093af8        0x0 c:/Users/Galileo/Projects/ELEC60011-fpga/system_template_de1_soc/software/hello_world2_bsp/\libhal_bsp.a(alt_kill.o)
 .bss           0x00093af8        0x0 c:/Users/Galileo/Projects/ELEC60011-fpga/system_template_de1_soc/software/hello_world2_bsp/\libhal_bsp.a(alt_load.o)
 .bss           0x00093af8        0x0 c:/Users/Galileo/Projects/ELEC60011-fpga/system_template_de1_soc/software/hello_world2_bsp/\libhal_bsp.a(alt_lseek.o)
 .bss           0x00093af8        0x0 c:/Users/Galileo/Projects/ELEC60011-fpga/system_template_de1_soc/software/hello_world2_bsp/\libhal_bsp.a(alt_main.o)
 .bss           0x00093af8        0x0 c:/Users/Galileo/Projects/ELEC60011-fpga/system_template_de1_soc/software/hello_world2_bsp/\libhal_bsp.a(alt_malloc_lock.o)
 .bss           0x00093af8        0x0 c:/Users/Galileo/Projects/ELEC60011-fpga/system_template_de1_soc/software/hello_world2_bsp/\libhal_bsp.a(alt_read.o)
 .bss           0x00093af8        0x0 c:/Users/Galileo/Projects/ELEC60011-fpga/system_template_de1_soc/software/hello_world2_bsp/\libhal_bsp.a(alt_release_fd.o)
 .bss           0x00093af8        0x0 c:/Users/Galileo/Projects/ELEC60011-fpga/system_template_de1_soc/software/hello_world2_bsp/\libhal_bsp.a(alt_sbrk.o)
 .bss           0x00093af8        0x0 c:/Users/Galileo/Projects/ELEC60011-fpga/system_template_de1_soc/software/hello_world2_bsp/\libhal_bsp.a(alt_times.o)
 .bss           0x00093af8        0x0 c:/Users/Galileo/Projects/ELEC60011-fpga/system_template_de1_soc/software/hello_world2_bsp/\libhal_bsp.a(alt_write.o)
 .bss           0x00093af8        0x0 c:/Users/Galileo/Projects/ELEC60011-fpga/system_template_de1_soc/software/hello_world2_bsp/\libhal_bsp.a(alt_sys_init.o)
 .bss           0x00093af8        0x0 c:/Users/Galileo/Projects/ELEC60011-fpga/system_template_de1_soc/software/hello_world2_bsp/\libhal_bsp.a(altera_avalon_jtag_uart_fd.o)
 .bss           0x00093af8        0x0 c:/Users/Galileo/Projects/ELEC60011-fpga/system_template_de1_soc/software/hello_world2_bsp/\libhal_bsp.a(altera_avalon_jtag_uart_read.o)
 .bss           0x00093af8        0x0 c:/Users/Galileo/Projects/ELEC60011-fpga/system_template_de1_soc/software/hello_world2_bsp/\libhal_bsp.a(altera_avalon_jtag_uart_write.o)
 .bss           0x00093af8        0x0 c:/Users/Galileo/Projects/ELEC60011-fpga/system_template_de1_soc/software/hello_world2_bsp/\libhal_bsp.a(altera_avalon_timer_sc.o)
 .bss           0x00093af8        0x0 c:/Users/Galileo/Projects/ELEC60011-fpga/system_template_de1_soc/software/hello_world2_bsp/\libhal_bsp.a(alt_dcache_flush_all.o)
 .bss           0x00093af8        0x0 c:/Users/Galileo/Projects/ELEC60011-fpga/system_template_de1_soc/software/hello_world2_bsp/\libhal_bsp.a(alt_dev_llist_insert.o)
 .bss           0x00093af8        0x0 c:/Users/Galileo/Projects/ELEC60011-fpga/system_template_de1_soc/software/hello_world2_bsp/\libhal_bsp.a(alt_icache_flush_all.o)
 .bss           0x00093af8        0x0 c:/Users/Galileo/Projects/ELEC60011-fpga/system_template_de1_soc/software/hello_world2_bsp/\libhal_bsp.a(alt_iic.o)
 .bss           0x00093af8        0x0 c:/Users/Galileo/Projects/ELEC60011-fpga/system_template_de1_soc/software/hello_world2_bsp/\libhal_bsp.a(alt_iic_isr_register.o)
 .bss           0x00093af8        0x0 c:/Users/Galileo/Projects/ELEC60011-fpga/system_template_de1_soc/software/hello_world2_bsp/\libhal_bsp.a(alt_io_redirect.o)
 .bss           0x00093af8        0x0 c:/Users/Galileo/Projects/ELEC60011-fpga/system_template_de1_soc/software/hello_world2_bsp/\libhal_bsp.a(alt_irq_entry.o)
 .bss           0x00093af8      0x100 c:/Users/Galileo/Projects/ELEC60011-fpga/system_template_de1_soc/software/hello_world2_bsp/\libhal_bsp.a(alt_irq_handler.o)
                0x00093af8                alt_irq
 .bss           0x00093bf8        0x0 c:/Users/Galileo/Projects/ELEC60011-fpga/system_template_de1_soc/software/hello_world2_bsp/\libhal_bsp.a(alt_irq_vars.o)
 .bss           0x00093bf8        0x0 c:/Users/Galileo/Projects/ELEC60011-fpga/system_template_de1_soc/software/hello_world2_bsp/\libhal_bsp.a(alt_open.o)
 .bss           0x00093bf8        0x0 c:/Users/Galileo/Projects/ELEC60011-fpga/system_template_de1_soc/software/hello_world2_bsp/\libhal_bsp.a(alt_tick.o)
 .bss           0x00093bf8        0x0 c:/Users/Galileo/Projects/ELEC60011-fpga/system_template_de1_soc/software/hello_world2_bsp/\libhal_bsp.a(altera_nios2_gen2_irq.o)
 .bss           0x00093bf8        0x0 c:/Users/Galileo/Projects/ELEC60011-fpga/system_template_de1_soc/software/hello_world2_bsp/\libhal_bsp.a(alt_exception_entry.o)
 .bss           0x00093bf8        0x0 c:/Users/Galileo/Projects/ELEC60011-fpga/system_template_de1_soc/software/hello_world2_bsp/\libhal_bsp.a(alt_find_dev.o)
 .bss           0x00093bf8        0x0 c:/Users/Galileo/Projects/ELEC60011-fpga/system_template_de1_soc/software/hello_world2_bsp/\libhal_bsp.a(alt_find_file.o)
 .bss           0x00093bf8        0x0 c:/Users/Galileo/Projects/ELEC60011-fpga/system_template_de1_soc/software/hello_world2_bsp/\libhal_bsp.a(alt_get_fd.o)
 .bss           0x00093bf8        0x0 c:/Users/Galileo/Projects/ELEC60011-fpga/system_template_de1_soc/software/hello_world2_bsp/\libhal_bsp.a(alt_icache_flush.o)
 .bss           0x00093bf8        0x0 c:/Users/Galileo/Projects/ELEC60011-fpga/system_template_de1_soc/software/hello_world2_bsp/\libhal_bsp.a(alt_instruction_exception_entry.o)
 .bss           0x00093bf8        0x0 c:/intelfpga_lite/23.1std/nios2eds/bin/gnu/h-x86_64-mingw32/bin/../lib/gcc/nios2-elf/12.3.1/../../../../../H-x86_64-mingw32/nios2-elf/lib/mhw-mulx\libc.a(libc_a-memcmp.o)
 *(COMMON)
                0x00093bf8                        . = ALIGN (0x4)
                0x00093bf8                        __bss_end = ABSOLUTE (.)

.onchip_mem     0x00093bf8        0x0
                [!provide]                        PROVIDE (_alt_partition_onchip_mem_start = ABSOLUTE (.))
 *(.onchip_mem .onchip_mem. onchip_mem.*)
                0x00093bf8                        . = ALIGN (0x4)
                [!provide]                        PROVIDE (_alt_partition_onchip_mem_end = ABSOLUTE (.))
                0x00093bf8                        _end = ABSOLUTE (.)
                0x00093bf8                        end = ABSOLUTE (.)
                0x00093bf8                        __alt_stack_base = ABSOLUTE (.)
                [!provide]                        PROVIDE (_alt_partition_onchip_mem_load_addr = LOADADDR (.onchip_mem))

.stab
 *(.stab)

.stabstr
 *(.stabstr)

.stab.excl
 *(.stab.excl)

.stab.exclstr
 *(.stab.exclstr)

.stab.index
 *(.stab.index)

.stab.indexstr
 *(.stab.indexstr)

.comment        0x00000000       0x2d
 *(.comment)
 .comment       0x00000000       0x2d obj/default/hello_world.o
                                 0x2e (size before relaxing)
 .comment       0x0000002d       0x2e c:/intelfpga_lite/23.1std/nios2eds/bin/gnu/h-x86_64-mingw32/bin/../lib/gcc/nios2-elf/12.3.1/../../../../../H-x86_64-mingw32/nios2-elf/lib/mhw-mulx\libm.a(libm_a-sf_cos.o)
 .comment       0x0000002d       0x2e c:/intelfpga_lite/23.1std/nios2eds/bin/gnu/h-x86_64-mingw32/bin/../lib/gcc/nios2-elf/12.3.1/../../../../../H-x86_64-mingw32/nios2-elf/lib/mhw-mulx\libm.a(libm_a-kf_cos.o)
 .comment       0x0000002d       0x2e c:/intelfpga_lite/23.1std/nios2eds/bin/gnu/h-x86_64-mingw32/bin/../lib/gcc/nios2-elf/12.3.1/../../../../../H-x86_64-mingw32/nios2-elf/lib/mhw-mulx\libm.a(libm_a-kf_sin.o)
 .comment       0x0000002d       0x2e c:/intelfpga_lite/23.1std/nios2eds/bin/gnu/h-x86_64-mingw32/bin/../lib/gcc/nios2-elf/12.3.1/../../../../../H-x86_64-mingw32/nios2-elf/lib/mhw-mulx\libm.a(libm_a-ef_rem_pio2.o)
 .comment       0x0000002d       0x2e c:/intelfpga_lite/23.1std/nios2eds/bin/gnu/h-x86_64-mingw32/bin/../lib/gcc/nios2-elf/12.3.1/../../../../../H-x86_64-mingw32/nios2-elf/lib/mhw-mulx\libm.a(libm_a-sf_fabs.o)
 .comment       0x0000002d       0x2e c:/intelfpga_lite/23.1std/nios2eds/bin/gnu/h-x86_64-mingw32/bin/../lib/gcc/nios2-elf/12.3.1/../../../../../H-x86_64-mingw32/nios2-elf/lib/mhw-mulx\libm.a(libm_a-kf_rem_pio2.o)
 .comment       0x0000002d       0x2e c:/intelfpga_lite/23.1std/nios2eds/bin/gnu/h-x86_64-mingw32/bin/../lib/gcc/nios2-elf/12.3.1/../../../../../H-x86_64-mingw32/nios2-elf/lib/mhw-mulx\libm.a(libm_a-sf_floor.o)
 .comment       0x0000002d       0x2e c:/intelfpga_lite/23.1std/nios2eds/bin/gnu/h-x86_64-mingw32/bin/../lib/gcc/nios2-elf/12.3.1/../../../../../H-x86_64-mingw32/nios2-elf/lib/mhw-mulx\libm.a(libm_a-sf_scalbn.o)
 .comment       0x0000002d       0x2e c:/intelfpga_lite/23.1std/nios2eds/bin/gnu/h-x86_64-mingw32/bin/../lib/gcc/nios2-elf/12.3.1/mhw-mulx\libgcc.a(addsf3.o)
 .comment       0x0000002d       0x2e c:/intelfpga_lite/23.1std/nios2eds/bin/gnu/h-x86_64-mingw32/bin/../lib/gcc/nios2-elf/12.3.1/mhw-mulx\libgcc.a(divsf3.o)
 .comment       0x0000002d       0x2e c:/intelfpga_lite/23.1std/nios2eds/bin/gnu/h-x86_64-mingw32/bin/../lib/gcc/nios2-elf/12.3.1/mhw-mulx\libgcc.a(eqsf2.o)
 .comment       0x0000002d       0x2e c:/intelfpga_lite/23.1std/nios2eds/bin/gnu/h-x86_64-mingw32/bin/../lib/gcc/nios2-elf/12.3.1/mhw-mulx\libgcc.a(gesf2.o)
 .comment       0x0000002d       0x2e c:/intelfpga_lite/23.1std/nios2eds/bin/gnu/h-x86_64-mingw32/bin/../lib/gcc/nios2-elf/12.3.1/mhw-mulx\libgcc.a(mulsf3.o)
 .comment       0x0000002d       0x2e c:/intelfpga_lite/23.1std/nios2eds/bin/gnu/h-x86_64-mingw32/bin/../lib/gcc/nios2-elf/12.3.1/mhw-mulx\libgcc.a(subsf3.o)
 .comment       0x0000002d       0x2e c:/intelfpga_lite/23.1std/nios2eds/bin/gnu/h-x86_64-mingw32/bin/../lib/gcc/nios2-elf/12.3.1/mhw-mulx\libgcc.a(fixsfsi.o)
 .comment       0x0000002d       0x2e c:/intelfpga_lite/23.1std/nios2eds/bin/gnu/h-x86_64-mingw32/bin/../lib/gcc/nios2-elf/12.3.1/mhw-mulx\libgcc.a(floatsisf.o)
 .comment       0x0000002d       0x2e c:/intelfpga_lite/23.1std/nios2eds/bin/gnu/h-x86_64-mingw32/bin/../lib/gcc/nios2-elf/12.3.1/mhw-mulx\libgcc.a(_clzsi2.o)
 .comment       0x0000002d       0x2e c:/intelfpga_lite/23.1std/nios2eds/bin/gnu/h-x86_64-mingw32/bin/../lib/gcc/nios2-elf/12.3.1/mhw-mulx\libgcc.a(_clz.o)
 .comment       0x0000002d       0x2e c:/intelfpga_lite/23.1std/nios2eds/bin/gnu/h-x86_64-mingw32/bin/../lib/gcc/nios2-elf/12.3.1/../../../../../H-x86_64-mingw32/nios2-elf/lib/mhw-mulx\libc.a(libc_a-rand.o)
 .comment       0x0000002d       0x2e c:/intelfpga_lite/23.1std/nios2eds/bin/gnu/h-x86_64-mingw32/bin/../lib/gcc/nios2-elf/12.3.1/../../../../../H-x86_64-mingw32/nios2-elf/lib/mhw-mulx\libc.a(libc_a-printf.o)
 .comment       0x0000002d       0x2e c:/intelfpga_lite/23.1std/nios2eds/bin/gnu/h-x86_64-mingw32/bin/../lib/gcc/nios2-elf/12.3.1/../../../../../H-x86_64-mingw32/nios2-elf/lib/mhw-mulx\libc.a(libc_a-puts.o)
 .comment       0x0000002d       0x2e c:/intelfpga_lite/23.1std/nios2eds/bin/gnu/h-x86_64-mingw32/bin/../lib/gcc/nios2-elf/12.3.1/../../../../../H-x86_64-mingw32/nios2-elf/lib/mhw-mulx\libc.a(libc_a-strlen.o)
 .comment       0x0000002d       0x2e c:/intelfpga_lite/23.1std/nios2eds/bin/gnu/h-x86_64-mingw32/bin/../lib/gcc/nios2-elf/12.3.1/../../../../../H-x86_64-mingw32/nios2-elf/lib/mhw-mulx\libc.a(libc_a-impure.o)
 .comment       0x0000002d       0x2e c:/intelfpga_lite/23.1std/nios2eds/bin/gnu/h-x86_64-mingw32/bin/../lib/gcc/nios2-elf/12.3.1/../../../../../H-x86_64-mingw32/nios2-elf/lib/mhw-mulx\libc.a(libc_a-vfprintf.o)
 .comment       0x0000002d       0x2e c:/intelfpga_lite/23.1std/nios2eds/bin/gnu/h-x86_64-mingw32/bin/../lib/gcc/nios2-elf/12.3.1/../../../../../H-x86_64-mingw32/nios2-elf/lib/mhw-mulx\libc.a(libc_a-vfiprintf.o)
 .comment       0x0000002d       0x2e c:/intelfpga_lite/23.1std/nios2eds/bin/gnu/h-x86_64-mingw32/bin/../lib/gcc/nios2-elf/12.3.1/../../../../../H-x86_64-mingw32/nios2-elf/lib/mhw-mulx\libc.a(libc_a-fflush.o)
 .comment       0x0000002d       0x2e c:/intelfpga_lite/23.1std/nios2eds/bin/gnu/h-x86_64-mingw32/bin/../lib/gcc/nios2-elf/12.3.1/../../../../../H-x86_64-mingw32/nios2-elf/lib/mhw-mulx\libc.a(libc_a-findfp.o)
 .comment       0x0000002d       0x2e c:/intelfpga_lite/23.1std/nios2eds/bin/gnu/h-x86_64-mingw32/bin/../lib/gcc/nios2-elf/12.3.1/../../../../../H-x86_64-mingw32/nios2-elf/lib/mhw-mulx\libc.a(libc_a-fvwrite.o)
 .comment       0x0000002d       0x2e c:/intelfpga_lite/23.1std/nios2eds/bin/gnu/h-x86_64-mingw32/bin/../lib/gcc/nios2-elf/12.3.1/../../../../../H-x86_64-mingw32/nios2-elf/lib/mhw-mulx\libc.a(libc_a-fwalk.o)
 .comment       0x0000002d       0x2e c:/intelfpga_lite/23.1std/nios2eds/bin/gnu/h-x86_64-mingw32/bin/../lib/gcc/nios2-elf/12.3.1/../../../../../H-x86_64-mingw32/nios2-elf/lib/mhw-mulx\libc.a(libc_a-stdio.o)
 .comment       0x0000002d       0x2e c:/intelfpga_lite/23.1std/nios2eds/bin/gnu/h-x86_64-mingw32/bin/../lib/gcc/nios2-elf/12.3.1/../../../../../H-x86_64-mingw32/nios2-elf/lib/mhw-mulx\libc.a(libc_a-wsetup.o)
 .comment       0x0000002d       0x2e c:/intelfpga_lite/23.1std/nios2eds/bin/gnu/h-x86_64-mingw32/bin/../lib/gcc/nios2-elf/12.3.1/../../../../../H-x86_64-mingw32/nios2-elf/lib/mhw-mulx\libc.a(libc_a-fputwc.o)
 .comment       0x0000002d       0x2e c:/intelfpga_lite/23.1std/nios2eds/bin/gnu/h-x86_64-mingw32/bin/../lib/gcc/nios2-elf/12.3.1/../../../../../H-x86_64-mingw32/nios2-elf/lib/mhw-mulx\libc.a(libc_a-memchr.o)
 .comment       0x0000002d       0x2e c:/intelfpga_lite/23.1std/nios2eds/bin/gnu/h-x86_64-mingw32/bin/../lib/gcc/nios2-elf/12.3.1/../../../../../H-x86_64-mingw32/nios2-elf/lib/mhw-mulx\libc.a(libc_a-memcpy.o)
 .comment       0x0000002d       0x2e c:/intelfpga_lite/23.1std/nios2eds/bin/gnu/h-x86_64-mingw32/bin/../lib/gcc/nios2-elf/12.3.1/../../../../../H-x86_64-mingw32/nios2-elf/lib/mhw-mulx\libc.a(libc_a-memmove.o)
 .comment       0x0000002d       0x2e c:/intelfpga_lite/23.1std/nios2eds/bin/gnu/h-x86_64-mingw32/bin/../lib/gcc/nios2-elf/12.3.1/../../../../../H-x86_64-mingw32/nios2-elf/lib/mhw-mulx\libc.a(libc_a-memset.o)
 .comment       0x0000002d       0x2e c:/intelfpga_lite/23.1std/nios2eds/bin/gnu/h-x86_64-mingw32/bin/../lib/gcc/nios2-elf/12.3.1/../../../../../H-x86_64-mingw32/nios2-elf/lib/mhw-mulx\libc.a(libc_a-locale.o)
 .comment       0x0000002d       0x2e c:/intelfpga_lite/23.1std/nios2eds/bin/gnu/h-x86_64-mingw32/bin/../lib/gcc/nios2-elf/12.3.1/../../../../../H-x86_64-mingw32/nios2-elf/lib/mhw-mulx\libc.a(libc_a-localeconv.o)
 .comment       0x0000002d       0x2e c:/intelfpga_lite/23.1std/nios2eds/bin/gnu/h-x86_64-mingw32/bin/../lib/gcc/nios2-elf/12.3.1/../../../../../H-x86_64-mingw32/nios2-elf/lib/mhw-mulx\libc.a(libc_a-closer.o)
 .comment       0x0000002d       0x2e c:/intelfpga_lite/23.1std/nios2eds/bin/gnu/h-x86_64-mingw32/bin/../lib/gcc/nios2-elf/12.3.1/../../../../../H-x86_64-mingw32/nios2-elf/lib/mhw-mulx\libc.a(libc_a-reent.o)
 .comment       0x0000002d       0x2e c:/intelfpga_lite/23.1std/nios2eds/bin/gnu/h-x86_64-mingw32/bin/../lib/gcc/nios2-elf/12.3.1/../../../../../H-x86_64-mingw32/nios2-elf/lib/mhw-mulx\libc.a(libc_a-lseekr.o)
 .comment       0x0000002d       0x2e c:/intelfpga_lite/23.1std/nios2eds/bin/gnu/h-x86_64-mingw32/bin/../lib/gcc/nios2-elf/12.3.1/../../../../../H-x86_64-mingw32/nios2-elf/lib/mhw-mulx\libc.a(libc_a-readr.o)
 .comment       0x0000002d       0x2e c:/intelfpga_lite/23.1std/nios2eds/bin/gnu/h-x86_64-mingw32/bin/../lib/gcc/nios2-elf/12.3.1/../../../../../H-x86_64-mingw32/nios2-elf/lib/mhw-mulx\libc.a(libc_a-writer.o)
 .comment       0x0000002d       0x2e c:/intelfpga_lite/23.1std/nios2eds/bin/gnu/h-x86_64-mingw32/bin/../lib/gcc/nios2-elf/12.3.1/../../../../../H-x86_64-mingw32/nios2-elf/lib/mhw-mulx\libc.a(libc_a-dtoa.o)
 .comment       0x0000002d       0x2e c:/intelfpga_lite/23.1std/nios2eds/bin/gnu/h-x86_64-mingw32/bin/../lib/gcc/nios2-elf/12.3.1/../../../../../H-x86_64-mingw32/nios2-elf/lib/mhw-mulx\libc.a(libc_a-exit.o)
 .comment       0x0000002d       0x2e c:/intelfpga_lite/23.1std/nios2eds/bin/gnu/h-x86_64-mingw32/bin/../lib/gcc/nios2-elf/12.3.1/../../../../../H-x86_64-mingw32/nios2-elf/lib/mhw-mulx\libc.a(libc_a-freer.o)
 .comment       0x0000002d       0x2e c:/intelfpga_lite/23.1std/nios2eds/bin/gnu/h-x86_64-mingw32/bin/../lib/gcc/nios2-elf/12.3.1/../../../../../H-x86_64-mingw32/nios2-elf/lib/mhw-mulx\libc.a(libc_a-mallocr.o)
 .comment       0x0000002d       0x2e c:/intelfpga_lite/23.1std/nios2eds/bin/gnu/h-x86_64-mingw32/bin/../lib/gcc/nios2-elf/12.3.1/../../../../../H-x86_64-mingw32/nios2-elf/lib/mhw-mulx\libc.a(libc_a-mbtowc_r.o)
 .comment       0x0000002d       0x2e c:/intelfpga_lite/23.1std/nios2eds/bin/gnu/h-x86_64-mingw32/bin/../lib/gcc/nios2-elf/12.3.1/../../../../../H-x86_64-mingw32/nios2-elf/lib/mhw-mulx\libc.a(libc_a-mprec.o)
 .comment       0x0000002d       0x2e c:/intelfpga_lite/23.1std/nios2eds/bin/gnu/h-x86_64-mingw32/bin/../lib/gcc/nios2-elf/12.3.1/../../../../../H-x86_64-mingw32/nios2-elf/lib/mhw-mulx\libc.a(libc_a-reallocr.o)
 .comment       0x0000002d       0x2e c:/intelfpga_lite/23.1std/nios2eds/bin/gnu/h-x86_64-mingw32/bin/../lib/gcc/nios2-elf/12.3.1/../../../../../H-x86_64-mingw32/nios2-elf/lib/mhw-mulx\libc.a(libc_a-wctomb_r.o)
 .comment       0x0000002d       0x2e c:/intelfpga_lite/23.1std/nios2eds/bin/gnu/h-x86_64-mingw32/bin/../lib/gcc/nios2-elf/12.3.1/../../../../../H-x86_64-mingw32/nios2-elf/lib/mhw-mulx\libc.a(libc_a-wcrtomb.o)
 .comment       0x0000002d       0x2e c:/intelfpga_lite/23.1std/nios2eds/bin/gnu/h-x86_64-mingw32/bin/../lib/gcc/nios2-elf/12.3.1/../../../../../H-x86_64-mingw32/nios2-elf/lib/mhw-mulx\libc.a(libc_a-ctype_.o)
 .comment       0x0000002d       0x2e c:/intelfpga_lite/23.1std/nios2eds/bin/gnu/h-x86_64-mingw32/bin/../lib/gcc/nios2-elf/12.3.1/../../../../../H-x86_64-mingw32/nios2-elf/lib/mhw-mulx\libc.a(libc_a-fclose.o)
 .comment       0x0000002d       0x2e c:/intelfpga_lite/23.1std/nios2eds/bin/gnu/h-x86_64-mingw32/bin/../lib/gcc/nios2-elf/12.3.1/../../../../../H-x86_64-mingw32/nios2-elf/lib/mhw-mulx\libc.a(libc_a-makebuf.o)
 .comment       0x0000002d       0x2e c:/intelfpga_lite/23.1std/nios2eds/bin/gnu/h-x86_64-mingw32/bin/../lib/gcc/nios2-elf/12.3.1/../../../../../H-x86_64-mingw32/nios2-elf/lib/mhw-mulx\libc.a(libc_a-wbuf.o)
 .comment       0x0000002d       0x2e c:/intelfpga_lite/23.1std/nios2eds/bin/gnu/h-x86_64-mingw32/bin/../lib/gcc/nios2-elf/12.3.1/../../../../../H-x86_64-mingw32/nios2-elf/lib/mhw-mulx\libc.a(libc_a-strcmp.o)
 .comment       0x0000002d       0x2e c:/intelfpga_lite/23.1std/nios2eds/bin/gnu/h-x86_64-mingw32/bin/../lib/gcc/nios2-elf/12.3.1/../../../../../H-x86_64-mingw32/nios2-elf/lib/mhw-mulx\libc.a(libc_a-fstatr.o)
 .comment       0x0000002d       0x2e c:/intelfpga_lite/23.1std/nios2eds/bin/gnu/h-x86_64-mingw32/bin/../lib/gcc/nios2-elf/12.3.1/../../../../../H-x86_64-mingw32/nios2-elf/lib/mhw-mulx\libc.a(libc_a-isattyr.o)
 .comment       0x0000002d       0x2e c:/intelfpga_lite/23.1std/nios2eds/bin/gnu/h-x86_64-mingw32/bin/../lib/gcc/nios2-elf/12.3.1/../../../../../H-x86_64-mingw32/nios2-elf/lib/mhw-mulx\libc.a(libc_a-sbrkr.o)
 .comment       0x0000002d       0x2e c:/intelfpga_lite/23.1std/nios2eds/bin/gnu/h-x86_64-mingw32/bin/../lib/gcc/nios2-elf/12.3.1/../../../../../H-x86_64-mingw32/nios2-elf/lib/mhw-mulx\libc.a(libc_a-__call_atexit.o)
 .comment       0x0000002d       0x2e c:/intelfpga_lite/23.1std/nios2eds/bin/gnu/h-x86_64-mingw32/bin/../lib/gcc/nios2-elf/12.3.1/../../../../../H-x86_64-mingw32/nios2-elf/lib/mhw-mulx\libc.a(libc_a-assert.o)
 .comment       0x0000002d       0x2e c:/intelfpga_lite/23.1std/nios2eds/bin/gnu/h-x86_64-mingw32/bin/../lib/gcc/nios2-elf/12.3.1/../../../../../H-x86_64-mingw32/nios2-elf/lib/mhw-mulx\libc.a(libc_a-callocr.o)
 .comment       0x0000002d       0x2e c:/intelfpga_lite/23.1std/nios2eds/bin/gnu/h-x86_64-mingw32/bin/../lib/gcc/nios2-elf/12.3.1/../../../../../H-x86_64-mingw32/nios2-elf/lib/mhw-mulx\libc.a(libc_a-fiprintf.o)
 .comment       0x0000002d       0x2e c:/intelfpga_lite/23.1std/nios2eds/bin/gnu/h-x86_64-mingw32/bin/../lib/gcc/nios2-elf/12.3.1/../../../../../H-x86_64-mingw32/nios2-elf/lib/mhw-mulx\libc.a(libc_a-vfiprintfr_1.o)
 .comment       0x0000002d       0x2e c:/intelfpga_lite/23.1std/nios2eds/bin/gnu/h-x86_64-mingw32/bin/../lib/gcc/nios2-elf/12.3.1/../../../../../H-x86_64-mingw32/nios2-elf/lib/mhw-mulx\libc.a(libc_a-errno.o)
 .comment       0x0000002d       0x2e c:/intelfpga_lite/23.1std/nios2eds/bin/gnu/h-x86_64-mingw32/bin/../lib/gcc/nios2-elf/12.3.1/../../../../../H-x86_64-mingw32/nios2-elf/lib/mhw-mulx\libc.a(libc_a-abort.o)
 .comment       0x0000002d       0x2e c:/intelfpga_lite/23.1std/nios2eds/bin/gnu/h-x86_64-mingw32/bin/../lib/gcc/nios2-elf/12.3.1/../../../../../H-x86_64-mingw32/nios2-elf/lib/mhw-mulx\libc.a(libc_a-signal.o)
 .comment       0x0000002d       0x2e c:/intelfpga_lite/23.1std/nios2eds/bin/gnu/h-x86_64-mingw32/bin/../lib/gcc/nios2-elf/12.3.1/../../../../../H-x86_64-mingw32/nios2-elf/lib/mhw-mulx\libc.a(libc_a-signalr.o)
 .comment       0x0000002d       0x2e c:/intelfpga_lite/23.1std/nios2eds/bin/gnu/h-x86_64-mingw32/bin/../lib/gcc/nios2-elf/12.3.1/mhw-mulx\libgcc.a(_udivdi3.o)
 .comment       0x0000002d       0x2e c:/intelfpga_lite/23.1std/nios2eds/bin/gnu/h-x86_64-mingw32/bin/../lib/gcc/nios2-elf/12.3.1/mhw-mulx\libgcc.a(_umoddi3.o)
 .comment       0x0000002d       0x2e c:/intelfpga_lite/23.1std/nios2eds/bin/gnu/h-x86_64-mingw32/bin/../lib/gcc/nios2-elf/12.3.1/mhw-mulx\libgcc.a(lib2-divmod.o)
 .comment       0x0000002d       0x2e c:/intelfpga_lite/23.1std/nios2eds/bin/gnu/h-x86_64-mingw32/bin/../lib/gcc/nios2-elf/12.3.1/mhw-mulx\libgcc.a(adddf3.o)
 .comment       0x0000002d       0x2e c:/intelfpga_lite/23.1std/nios2eds/bin/gnu/h-x86_64-mingw32/bin/../lib/gcc/nios2-elf/12.3.1/mhw-mulx\libgcc.a(divdf3.o)
 .comment       0x0000002d       0x2e c:/intelfpga_lite/23.1std/nios2eds/bin/gnu/h-x86_64-mingw32/bin/../lib/gcc/nios2-elf/12.3.1/mhw-mulx\libgcc.a(eqdf2.o)
 .comment       0x0000002d       0x2e c:/intelfpga_lite/23.1std/nios2eds/bin/gnu/h-x86_64-mingw32/bin/../lib/gcc/nios2-elf/12.3.1/mhw-mulx\libgcc.a(gedf2.o)
 .comment       0x0000002d       0x2e c:/intelfpga_lite/23.1std/nios2eds/bin/gnu/h-x86_64-mingw32/bin/../lib/gcc/nios2-elf/12.3.1/mhw-mulx\libgcc.a(ledf2.o)
 .comment       0x0000002d       0x2e c:/intelfpga_lite/23.1std/nios2eds/bin/gnu/h-x86_64-mingw32/bin/../lib/gcc/nios2-elf/12.3.1/mhw-mulx\libgcc.a(muldf3.o)
 .comment       0x0000002d       0x2e c:/intelfpga_lite/23.1std/nios2eds/bin/gnu/h-x86_64-mingw32/bin/../lib/gcc/nios2-elf/12.3.1/mhw-mulx\libgcc.a(subdf3.o)
 .comment       0x0000002d       0x2e c:/intelfpga_lite/23.1std/nios2eds/bin/gnu/h-x86_64-mingw32/bin/../lib/gcc/nios2-elf/12.3.1/mhw-mulx\libgcc.a(unorddf2.o)
 .comment       0x0000002d       0x2e c:/intelfpga_lite/23.1std/nios2eds/bin/gnu/h-x86_64-mingw32/bin/../lib/gcc/nios2-elf/12.3.1/mhw-mulx\libgcc.a(fixdfsi.o)
 .comment       0x0000002d       0x2e c:/intelfpga_lite/23.1std/nios2eds/bin/gnu/h-x86_64-mingw32/bin/../lib/gcc/nios2-elf/12.3.1/mhw-mulx\libgcc.a(floatsidf.o)
 .comment       0x0000002d       0x2e c:/intelfpga_lite/23.1std/nios2eds/bin/gnu/h-x86_64-mingw32/bin/../lib/gcc/nios2-elf/12.3.1/mhw-mulx\libgcc.a(floatunsidf.o)
 .comment       0x0000002d       0x2e c:/Users/Galileo/Projects/ELEC60011-fpga/system_template_de1_soc/software/hello_world2_bsp/\libhal_bsp.a(alt_close.o)
 .comment       0x0000002d       0x2e c:/Users/Galileo/Projects/ELEC60011-fpga/system_template_de1_soc/software/hello_world2_bsp/\libhal_bsp.a(alt_dev.o)
 .comment       0x0000002d       0x2e c:/Users/Galileo/Projects/ELEC60011-fpga/system_template_de1_soc/software/hello_world2_bsp/\libhal_bsp.a(alt_errno.o)
 .comment       0x0000002d       0x2e c:/Users/Galileo/Projects/ELEC60011-fpga/system_template_de1_soc/software/hello_world2_bsp/\libhal_bsp.a(alt_exit.o)
 .comment       0x0000002d       0x2e c:/Users/Galileo/Projects/ELEC60011-fpga/system_template_de1_soc/software/hello_world2_bsp/\libhal_bsp.a(alt_fstat.o)
 .comment       0x0000002d       0x2e c:/Users/Galileo/Projects/ELEC60011-fpga/system_template_de1_soc/software/hello_world2_bsp/\libhal_bsp.a(alt_getpid.o)
 .comment       0x0000002d       0x2e c:/Users/Galileo/Projects/ELEC60011-fpga/system_template_de1_soc/software/hello_world2_bsp/\libhal_bsp.a(alt_isatty.o)
 .comment       0x0000002d       0x2e c:/Users/Galileo/Projects/ELEC60011-fpga/system_template_de1_soc/software/hello_world2_bsp/\libhal_bsp.a(alt_kill.o)
 .comment       0x0000002d       0x2e c:/Users/Galileo/Projects/ELEC60011-fpga/system_template_de1_soc/software/hello_world2_bsp/\libhal_bsp.a(alt_load.o)
 .comment       0x0000002d       0x2e c:/Users/Galileo/Projects/ELEC60011-fpga/system_template_de1_soc/software/hello_world2_bsp/\libhal_bsp.a(alt_lseek.o)
 .comment       0x0000002d       0x2e c:/Users/Galileo/Projects/ELEC60011-fpga/system_template_de1_soc/software/hello_world2_bsp/\libhal_bsp.a(alt_main.o)
 .comment       0x0000002d       0x2e c:/Users/Galileo/Projects/ELEC60011-fpga/system_template_de1_soc/software/hello_world2_bsp/\libhal_bsp.a(alt_malloc_lock.o)
 .comment       0x0000002d       0x2e c:/Users/Galileo/Projects/ELEC60011-fpga/system_template_de1_soc/software/hello_world2_bsp/\libhal_bsp.a(alt_read.o)
 .comment       0x0000002d       0x2e c:/Users/Galileo/Projects/ELEC60011-fpga/system_template_de1_soc/software/hello_world2_bsp/\libhal_bsp.a(alt_release_fd.o)
 .comment       0x0000002d       0x2e c:/Users/Galileo/Projects/ELEC60011-fpga/system_template_de1_soc/software/hello_world2_bsp/\libhal_bsp.a(alt_sbrk.o)
 .comment       0x0000002d       0x2e c:/Users/Galileo/Projects/ELEC60011-fpga/system_template_de1_soc/software/hello_world2_bsp/\libhal_bsp.a(alt_times.o)
 .comment       0x0000002d       0x2e c:/Users/Galileo/Projects/ELEC60011-fpga/system_template_de1_soc/software/hello_world2_bsp/\libhal_bsp.a(alt_write.o)
 .comment       0x0000002d       0x2e c:/Users/Galileo/Projects/ELEC60011-fpga/system_template_de1_soc/software/hello_world2_bsp/\libhal_bsp.a(alt_sys_init.o)
 .comment       0x0000002d       0x2e c:/Users/Galileo/Projects/ELEC60011-fpga/system_template_de1_soc/software/hello_world2_bsp/\libhal_bsp.a(altera_avalon_jtag_uart_fd.o)
 .comment       0x0000002d       0x2e c:/Users/Galileo/Projects/ELEC60011-fpga/system_template_de1_soc/software/hello_world2_bsp/\libhal_bsp.a(altera_avalon_jtag_uart_read.o)
 .comment       0x0000002d       0x2e c:/Users/Galileo/Projects/ELEC60011-fpga/system_template_de1_soc/software/hello_world2_bsp/\libhal_bsp.a(altera_avalon_jtag_uart_write.o)
 .comment       0x0000002d       0x2e c:/Users/Galileo/Projects/ELEC60011-fpga/system_template_de1_soc/software/hello_world2_bsp/\libhal_bsp.a(altera_avalon_timer_sc.o)
 .comment       0x0000002d       0x2e c:/Users/Galileo/Projects/ELEC60011-fpga/system_template_de1_soc/software/hello_world2_bsp/\libhal_bsp.a(alt_dcache_flush_all.o)
 .comment       0x0000002d       0x2e c:/Users/Galileo/Projects/ELEC60011-fpga/system_template_de1_soc/software/hello_world2_bsp/\libhal_bsp.a(alt_dev_llist_insert.o)
 .comment       0x0000002d       0x2e c:/Users/Galileo/Projects/ELEC60011-fpga/system_template_de1_soc/software/hello_world2_bsp/\libhal_bsp.a(alt_icache_flush_all.o)
 .comment       0x0000002d       0x2e c:/Users/Galileo/Projects/ELEC60011-fpga/system_template_de1_soc/software/hello_world2_bsp/\libhal_bsp.a(alt_iic.o)
 .comment       0x0000002d       0x2e c:/Users/Galileo/Projects/ELEC60011-fpga/system_template_de1_soc/software/hello_world2_bsp/\libhal_bsp.a(alt_iic_isr_register.o)
 .comment       0x0000002d       0x2e c:/Users/Galileo/Projects/ELEC60011-fpga/system_template_de1_soc/software/hello_world2_bsp/\libhal_bsp.a(alt_io_redirect.o)
 .comment       0x0000002d       0x2e c:/Users/Galileo/Projects/ELEC60011-fpga/system_template_de1_soc/software/hello_world2_bsp/\libhal_bsp.a(alt_irq_handler.o)
 .comment       0x0000002d       0x2e c:/Users/Galileo/Projects/ELEC60011-fpga/system_template_de1_soc/software/hello_world2_bsp/\libhal_bsp.a(alt_irq_vars.o)
 .comment       0x0000002d       0x2e c:/Users/Galileo/Projects/ELEC60011-fpga/system_template_de1_soc/software/hello_world2_bsp/\libhal_bsp.a(alt_open.o)
 .comment       0x0000002d       0x2e c:/Users/Galileo/Projects/ELEC60011-fpga/system_template_de1_soc/software/hello_world2_bsp/\libhal_bsp.a(alt_tick.o)
 .comment       0x0000002d       0x2e c:/Users/Galileo/Projects/ELEC60011-fpga/system_template_de1_soc/software/hello_world2_bsp/\libhal_bsp.a(altera_nios2_gen2_irq.o)
 .comment       0x0000002d       0x2e c:/Users/Galileo/Projects/ELEC60011-fpga/system_template_de1_soc/software/hello_world2_bsp/\libhal_bsp.a(alt_find_dev.o)
 .comment       0x0000002d       0x2e c:/Users/Galileo/Projects/ELEC60011-fpga/system_template_de1_soc/software/hello_world2_bsp/\libhal_bsp.a(alt_find_file.o)
 .comment       0x0000002d       0x2e c:/Users/Galileo/Projects/ELEC60011-fpga/system_template_de1_soc/software/hello_world2_bsp/\libhal_bsp.a(alt_get_fd.o)
 .comment       0x0000002d       0x2e c:/Users/Galileo/Projects/ELEC60011-fpga/system_template_de1_soc/software/hello_world2_bsp/\libhal_bsp.a(alt_icache_flush.o)
 .comment       0x0000002d       0x2e c:/Users/Galileo/Projects/ELEC60011-fpga/system_template_de1_soc/software/hello_world2_bsp/\libhal_bsp.a(alt_instruction_exception_entry.o)
 .comment       0x0000002d       0x2e c:/intelfpga_lite/23.1std/nios2eds/bin/gnu/h-x86_64-mingw32/bin/../lib/gcc/nios2-elf/12.3.1/../../../../../H-x86_64-mingw32/nios2-elf/lib/mhw-mulx\libc.a(libc_a-memcmp.o)

.debug
 *(.debug)

.line
 *(.line)

.debug_srcinfo
 *(.debug_srcinfo)

.debug_sfnames
 *(.debug_sfnames)

.debug_aranges  0x00000000     0x11e0
 *(.debug_aranges)
 .debug_aranges
                0x00000000       0x28 c:/Users/Galileo/Projects/ELEC60011-fpga/system_template_de1_soc/software/hello_world2_bsp//obj/HAL/src/crt0.o
 .debug_aranges
                0x00000028       0x20 obj/default/hello_world.o
 .debug_aranges
                0x00000048       0x20 c:/intelfpga_lite/23.1std/nios2eds/bin/gnu/h-x86_64-mingw32/bin/../lib/gcc/nios2-elf/12.3.1/../../../../../H-x86_64-mingw32/nios2-elf/lib/mhw-mulx\libm.a(libm_a-sf_cos.o)
 .debug_aranges
                0x00000068       0x20 c:/intelfpga_lite/23.1std/nios2eds/bin/gnu/h-x86_64-mingw32/bin/../lib/gcc/nios2-elf/12.3.1/../../../../../H-x86_64-mingw32/nios2-elf/lib/mhw-mulx\libm.a(libm_a-kf_cos.o)
 .debug_aranges
                0x00000088       0x20 c:/intelfpga_lite/23.1std/nios2eds/bin/gnu/h-x86_64-mingw32/bin/../lib/gcc/nios2-elf/12.3.1/../../../../../H-x86_64-mingw32/nios2-elf/lib/mhw-mulx\libm.a(libm_a-kf_sin.o)
 .debug_aranges
                0x000000a8       0x20 c:/intelfpga_lite/23.1std/nios2eds/bin/gnu/h-x86_64-mingw32/bin/../lib/gcc/nios2-elf/12.3.1/../../../../../H-x86_64-mingw32/nios2-elf/lib/mhw-mulx\libm.a(libm_a-ef_rem_pio2.o)
 .debug_aranges
                0x000000c8       0x20 c:/intelfpga_lite/23.1std/nios2eds/bin/gnu/h-x86_64-mingw32/bin/../lib/gcc/nios2-elf/12.3.1/../../../../../H-x86_64-mingw32/nios2-elf/lib/mhw-mulx\libm.a(libm_a-sf_fabs.o)
 .debug_aranges
                0x000000e8       0x20 c:/intelfpga_lite/23.1std/nios2eds/bin/gnu/h-x86_64-mingw32/bin/../lib/gcc/nios2-elf/12.3.1/../../../../../H-x86_64-mingw32/nios2-elf/lib/mhw-mulx\libm.a(libm_a-kf_rem_pio2.o)
 .debug_aranges
                0x00000108       0x20 c:/intelfpga_lite/23.1std/nios2eds/bin/gnu/h-x86_64-mingw32/bin/../lib/gcc/nios2-elf/12.3.1/../../../../../H-x86_64-mingw32/nios2-elf/lib/mhw-mulx\libm.a(libm_a-sf_floor.o)
 .debug_aranges
                0x00000128       0x20 c:/intelfpga_lite/23.1std/nios2eds/bin/gnu/h-x86_64-mingw32/bin/../lib/gcc/nios2-elf/12.3.1/../../../../../H-x86_64-mingw32/nios2-elf/lib/mhw-mulx\libm.a(libm_a-sf_scalbn.o)
 .debug_aranges
                0x00000148       0x20 c:/intelfpga_lite/23.1std/nios2eds/bin/gnu/h-x86_64-mingw32/bin/../lib/gcc/nios2-elf/12.3.1/mhw-mulx\libgcc.a(addsf3.o)
 .debug_aranges
                0x00000168       0x20 c:/intelfpga_lite/23.1std/nios2eds/bin/gnu/h-x86_64-mingw32/bin/../lib/gcc/nios2-elf/12.3.1/mhw-mulx\libgcc.a(divsf3.o)
 .debug_aranges
                0x00000188       0x20 c:/intelfpga_lite/23.1std/nios2eds/bin/gnu/h-x86_64-mingw32/bin/../lib/gcc/nios2-elf/12.3.1/mhw-mulx\libgcc.a(eqsf2.o)
 .debug_aranges
                0x000001a8       0x20 c:/intelfpga_lite/23.1std/nios2eds/bin/gnu/h-x86_64-mingw32/bin/../lib/gcc/nios2-elf/12.3.1/mhw-mulx\libgcc.a(gesf2.o)
 .debug_aranges
                0x000001c8       0x20 c:/intelfpga_lite/23.1std/nios2eds/bin/gnu/h-x86_64-mingw32/bin/../lib/gcc/nios2-elf/12.3.1/mhw-mulx\libgcc.a(mulsf3.o)
 .debug_aranges
                0x000001e8       0x20 c:/intelfpga_lite/23.1std/nios2eds/bin/gnu/h-x86_64-mingw32/bin/../lib/gcc/nios2-elf/12.3.1/mhw-mulx\libgcc.a(subsf3.o)
 .debug_aranges
                0x00000208       0x20 c:/intelfpga_lite/23.1std/nios2eds/bin/gnu/h-x86_64-mingw32/bin/../lib/gcc/nios2-elf/12.3.1/mhw-mulx\libgcc.a(fixsfsi.o)
 .debug_aranges
                0x00000228       0x20 c:/intelfpga_lite/23.1std/nios2eds/bin/gnu/h-x86_64-mingw32/bin/../lib/gcc/nios2-elf/12.3.1/mhw-mulx\libgcc.a(floatsisf.o)
 .debug_aranges
                0x00000248       0x20 c:/intelfpga_lite/23.1std/nios2eds/bin/gnu/h-x86_64-mingw32/bin/../lib/gcc/nios2-elf/12.3.1/mhw-mulx\libgcc.a(_clzsi2.o)
 .debug_aranges
                0x00000268       0x18 c:/intelfpga_lite/23.1std/nios2eds/bin/gnu/h-x86_64-mingw32/bin/../lib/gcc/nios2-elf/12.3.1/mhw-mulx\libgcc.a(_clz.o)
 .debug_aranges
                0x00000280       0x28 c:/intelfpga_lite/23.1std/nios2eds/bin/gnu/h-x86_64-mingw32/bin/../lib/gcc/nios2-elf/12.3.1/../../../../../H-x86_64-mingw32/nios2-elf/lib/mhw-mulx\libc.a(libc_a-rand.o)
 .debug_aranges
                0x000002a8       0x28 c:/intelfpga_lite/23.1std/nios2eds/bin/gnu/h-x86_64-mingw32/bin/../lib/gcc/nios2-elf/12.3.1/../../../../../H-x86_64-mingw32/nios2-elf/lib/mhw-mulx\libc.a(libc_a-printf.o)
 .debug_aranges
                0x000002d0       0x28 c:/intelfpga_lite/23.1std/nios2eds/bin/gnu/h-x86_64-mingw32/bin/../lib/gcc/nios2-elf/12.3.1/../../../../../H-x86_64-mingw32/nios2-elf/lib/mhw-mulx\libc.a(libc_a-puts.o)
 .debug_aranges
                0x000002f8       0x20 c:/intelfpga_lite/23.1std/nios2eds/bin/gnu/h-x86_64-mingw32/bin/../lib/gcc/nios2-elf/12.3.1/../../../../../H-x86_64-mingw32/nios2-elf/lib/mhw-mulx\libc.a(libc_a-strlen.o)
 .debug_aranges
                0x00000318       0x18 c:/intelfpga_lite/23.1std/nios2eds/bin/gnu/h-x86_64-mingw32/bin/../lib/gcc/nios2-elf/12.3.1/../../../../../H-x86_64-mingw32/nios2-elf/lib/mhw-mulx\libc.a(libc_a-impure.o)
 .debug_aranges
                0x00000330       0x30 c:/intelfpga_lite/23.1std/nios2eds/bin/gnu/h-x86_64-mingw32/bin/../lib/gcc/nios2-elf/12.3.1/../../../../../H-x86_64-mingw32/nios2-elf/lib/mhw-mulx\libc.a(libc_a-vfprintf.o)
 .debug_aranges
                0x00000360       0x40 c:/intelfpga_lite/23.1std/nios2eds/bin/gnu/h-x86_64-mingw32/bin/../lib/gcc/nios2-elf/12.3.1/../../../../../H-x86_64-mingw32/nios2-elf/lib/mhw-mulx\libc.a(libc_a-vfiprintf.o)
 .debug_aranges
                0x000003a0       0x30 c:/intelfpga_lite/23.1std/nios2eds/bin/gnu/h-x86_64-mingw32/bin/../lib/gcc/nios2-elf/12.3.1/../../../../../H-x86_64-mingw32/nios2-elf/lib/mhw-mulx\libc.a(libc_a-fflush.o)
 .debug_aranges
                0x000003d0       0x70 c:/intelfpga_lite/23.1std/nios2eds/bin/gnu/h-x86_64-mingw32/bin/../lib/gcc/nios2-elf/12.3.1/../../../../../H-x86_64-mingw32/nios2-elf/lib/mhw-mulx\libc.a(libc_a-findfp.o)
 .debug_aranges
                0x00000440       0x20 c:/intelfpga_lite/23.1std/nios2eds/bin/gnu/h-x86_64-mingw32/bin/../lib/gcc/nios2-elf/12.3.1/../../../../../H-x86_64-mingw32/nios2-elf/lib/mhw-mulx\libc.a(libc_a-fvwrite.o)
 .debug_aranges
                0x00000460       0x20 c:/intelfpga_lite/23.1std/nios2eds/bin/gnu/h-x86_64-mingw32/bin/../lib/gcc/nios2-elf/12.3.1/../../../../../H-x86_64-mingw32/nios2-elf/lib/mhw-mulx\libc.a(libc_a-fwalk.o)
 .debug_aranges
                0x00000480       0x40 c:/intelfpga_lite/23.1std/nios2eds/bin/gnu/h-x86_64-mingw32/bin/../lib/gcc/nios2-elf/12.3.1/../../../../../H-x86_64-mingw32/nios2-elf/lib/mhw-mulx\libc.a(libc_a-stdio.o)
 .debug_aranges
                0x000004c0       0x20 c:/intelfpga_lite/23.1std/nios2eds/bin/gnu/h-x86_64-mingw32/bin/../lib/gcc/nios2-elf/12.3.1/../../../../../H-x86_64-mingw32/nios2-elf/lib/mhw-mulx\libc.a(libc_a-wsetup.o)
 .debug_aranges
                0x000004e0       0x30 c:/intelfpga_lite/23.1std/nios2eds/bin/gnu/h-x86_64-mingw32/bin/../lib/gcc/nios2-elf/12.3.1/../../../../../H-x86_64-mingw32/nios2-elf/lib/mhw-mulx\libc.a(libc_a-fputwc.o)
 .debug_aranges
                0x00000510       0x20 c:/intelfpga_lite/23.1std/nios2eds/bin/gnu/h-x86_64-mingw32/bin/../lib/gcc/nios2-elf/12.3.1/../../../../../H-x86_64-mingw32/nios2-elf/lib/mhw-mulx\libc.a(libc_a-memchr.o)
 .debug_aranges
                0x00000530       0x20 c:/intelfpga_lite/23.1std/nios2eds/bin/gnu/h-x86_64-mingw32/bin/../lib/gcc/nios2-elf/12.3.1/../../../../../H-x86_64-mingw32/nios2-elf/lib/mhw-mulx\libc.a(libc_a-memcpy.o)
 .debug_aranges
                0x00000550       0x20 c:/intelfpga_lite/23.1std/nios2eds/bin/gnu/h-x86_64-mingw32/bin/../lib/gcc/nios2-elf/12.3.1/../../../../../H-x86_64-mingw32/nios2-elf/lib/mhw-mulx\libc.a(libc_a-memmove.o)
 .debug_aranges
                0x00000570       0x20 c:/intelfpga_lite/23.1std/nios2eds/bin/gnu/h-x86_64-mingw32/bin/../lib/gcc/nios2-elf/12.3.1/../../../../../H-x86_64-mingw32/nios2-elf/lib/mhw-mulx\libc.a(libc_a-memset.o)
 .debug_aranges
                0x00000590       0x30 c:/intelfpga_lite/23.1std/nios2eds/bin/gnu/h-x86_64-mingw32/bin/../lib/gcc/nios2-elf/12.3.1/../../../../../H-x86_64-mingw32/nios2-elf/lib/mhw-mulx\libc.a(libc_a-locale.o)
 .debug_aranges
                0x000005c0       0x30 c:/intelfpga_lite/23.1std/nios2eds/bin/gnu/h-x86_64-mingw32/bin/../lib/gcc/nios2-elf/12.3.1/../../../../../H-x86_64-mingw32/nios2-elf/lib/mhw-mulx\libc.a(libc_a-localeconv.o)
 .debug_aranges
                0x000005f0       0x20 c:/intelfpga_lite/23.1std/nios2eds/bin/gnu/h-x86_64-mingw32/bin/../lib/gcc/nios2-elf/12.3.1/../../../../../H-x86_64-mingw32/nios2-elf/lib/mhw-mulx\libc.a(libc_a-closer.o)
 .debug_aranges
                0x00000610       0x20 c:/intelfpga_lite/23.1std/nios2eds/bin/gnu/h-x86_64-mingw32/bin/../lib/gcc/nios2-elf/12.3.1/../../../../../H-x86_64-mingw32/nios2-elf/lib/mhw-mulx\libc.a(libc_a-reent.o)
 .debug_aranges
                0x00000630       0x20 c:/intelfpga_lite/23.1std/nios2eds/bin/gnu/h-x86_64-mingw32/bin/../lib/gcc/nios2-elf/12.3.1/../../../../../H-x86_64-mingw32/nios2-elf/lib/mhw-mulx\libc.a(libc_a-lseekr.o)
 .debug_aranges
                0x00000650       0x20 c:/intelfpga_lite/23.1std/nios2eds/bin/gnu/h-x86_64-mingw32/bin/../lib/gcc/nios2-elf/12.3.1/../../../../../H-x86_64-mingw32/nios2-elf/lib/mhw-mulx\libc.a(libc_a-readr.o)
 .debug_aranges
                0x00000670       0x20 c:/intelfpga_lite/23.1std/nios2eds/bin/gnu/h-x86_64-mingw32/bin/../lib/gcc/nios2-elf/12.3.1/../../../../../H-x86_64-mingw32/nios2-elf/lib/mhw-mulx\libc.a(libc_a-writer.o)
 .debug_aranges
                0x00000690       0x28 c:/intelfpga_lite/23.1std/nios2eds/bin/gnu/h-x86_64-mingw32/bin/../lib/gcc/nios2-elf/12.3.1/../../../../../H-x86_64-mingw32/nios2-elf/lib/mhw-mulx\libc.a(libc_a-dtoa.o)
 .debug_aranges
                0x000006b8       0x20 c:/intelfpga_lite/23.1std/nios2eds/bin/gnu/h-x86_64-mingw32/bin/../lib/gcc/nios2-elf/12.3.1/../../../../../H-x86_64-mingw32/nios2-elf/lib/mhw-mulx\libc.a(libc_a-exit.o)
 .debug_aranges
                0x000006d8       0x28 c:/intelfpga_lite/23.1std/nios2eds/bin/gnu/h-x86_64-mingw32/bin/../lib/gcc/nios2-elf/12.3.1/../../../../../H-x86_64-mingw32/nios2-elf/lib/mhw-mulx\libc.a(libc_a-freer.o)
 .debug_aranges
                0x00000700       0x20 c:/intelfpga_lite/23.1std/nios2eds/bin/gnu/h-x86_64-mingw32/bin/../lib/gcc/nios2-elf/12.3.1/../../../../../H-x86_64-mingw32/nios2-elf/lib/mhw-mulx\libc.a(libc_a-mallocr.o)
 .debug_aranges
                0x00000720       0x28 c:/intelfpga_lite/23.1std/nios2eds/bin/gnu/h-x86_64-mingw32/bin/../lib/gcc/nios2-elf/12.3.1/../../../../../H-x86_64-mingw32/nios2-elf/lib/mhw-mulx\libc.a(libc_a-mbtowc_r.o)
 .debug_aranges
                0x00000748       0xb0 c:/intelfpga_lite/23.1std/nios2eds/bin/gnu/h-x86_64-mingw32/bin/../lib/gcc/nios2-elf/12.3.1/../../../../../H-x86_64-mingw32/nios2-elf/lib/mhw-mulx\libc.a(libc_a-mprec.o)
 .debug_aranges
                0x000007f8       0x20 c:/intelfpga_lite/23.1std/nios2eds/bin/gnu/h-x86_64-mingw32/bin/../lib/gcc/nios2-elf/12.3.1/../../../../../H-x86_64-mingw32/nios2-elf/lib/mhw-mulx\libc.a(libc_a-reallocr.o)
 .debug_aranges
                0x00000818       0x28 c:/intelfpga_lite/23.1std/nios2eds/bin/gnu/h-x86_64-mingw32/bin/../lib/gcc/nios2-elf/12.3.1/../../../../../H-x86_64-mingw32/nios2-elf/lib/mhw-mulx\libc.a(libc_a-wctomb_r.o)
 .debug_aranges
                0x00000840       0x28 c:/intelfpga_lite/23.1std/nios2eds/bin/gnu/h-x86_64-mingw32/bin/../lib/gcc/nios2-elf/12.3.1/../../../../../H-x86_64-mingw32/nios2-elf/lib/mhw-mulx\libc.a(libc_a-wcrtomb.o)
 .debug_aranges
                0x00000868       0x18 c:/intelfpga_lite/23.1std/nios2eds/bin/gnu/h-x86_64-mingw32/bin/../lib/gcc/nios2-elf/12.3.1/../../../../../H-x86_64-mingw32/nios2-elf/lib/mhw-mulx\libc.a(libc_a-ctype_.o)
 .debug_aranges
                0x00000880       0x28 c:/intelfpga_lite/23.1std/nios2eds/bin/gnu/h-x86_64-mingw32/bin/../lib/gcc/nios2-elf/12.3.1/../../../../../H-x86_64-mingw32/nios2-elf/lib/mhw-mulx\libc.a(libc_a-fclose.o)
 .debug_aranges
                0x000008a8       0x28 c:/intelfpga_lite/23.1std/nios2eds/bin/gnu/h-x86_64-mingw32/bin/../lib/gcc/nios2-elf/12.3.1/../../../../../H-x86_64-mingw32/nios2-elf/lib/mhw-mulx\libc.a(libc_a-makebuf.o)
 .debug_aranges
                0x000008d0       0x28 c:/intelfpga_lite/23.1std/nios2eds/bin/gnu/h-x86_64-mingw32/bin/../lib/gcc/nios2-elf/12.3.1/../../../../../H-x86_64-mingw32/nios2-elf/lib/mhw-mulx\libc.a(libc_a-wbuf.o)
 .debug_aranges
                0x000008f8       0x20 c:/intelfpga_lite/23.1std/nios2eds/bin/gnu/h-x86_64-mingw32/bin/../lib/gcc/nios2-elf/12.3.1/../../../../../H-x86_64-mingw32/nios2-elf/lib/mhw-mulx\libc.a(libc_a-strcmp.o)
 .debug_aranges
                0x00000918       0x20 c:/intelfpga_lite/23.1std/nios2eds/bin/gnu/h-x86_64-mingw32/bin/../lib/gcc/nios2-elf/12.3.1/../../../../../H-x86_64-mingw32/nios2-elf/lib/mhw-mulx\libc.a(libc_a-fstatr.o)
 .debug_aranges
                0x00000938       0x20 c:/intelfpga_lite/23.1std/nios2eds/bin/gnu/h-x86_64-mingw32/bin/../lib/gcc/nios2-elf/12.3.1/../../../../../H-x86_64-mingw32/nios2-elf/lib/mhw-mulx\libc.a(libc_a-isattyr.o)
 .debug_aranges
                0x00000958       0x20 c:/intelfpga_lite/23.1std/nios2eds/bin/gnu/h-x86_64-mingw32/bin/../lib/gcc/nios2-elf/12.3.1/../../../../../H-x86_64-mingw32/nios2-elf/lib/mhw-mulx\libc.a(libc_a-sbrkr.o)
 .debug_aranges
                0x00000978       0x20 c:/intelfpga_lite/23.1std/nios2eds/bin/gnu/h-x86_64-mingw32/bin/../lib/gcc/nios2-elf/12.3.1/../../../../../H-x86_64-mingw32/nios2-elf/lib/mhw-mulx\libc.a(libc_a-__call_atexit.o)
 .debug_aranges
                0x00000998       0x28 c:/intelfpga_lite/23.1std/nios2eds/bin/gnu/h-x86_64-mingw32/bin/../lib/gcc/nios2-elf/12.3.1/../../../../../H-x86_64-mingw32/nios2-elf/lib/mhw-mulx\libc.a(libc_a-assert.o)
 .debug_aranges
                0x000009c0       0x20 c:/intelfpga_lite/23.1std/nios2eds/bin/gnu/h-x86_64-mingw32/bin/../lib/gcc/nios2-elf/12.3.1/../../../../../H-x86_64-mingw32/nios2-elf/lib/mhw-mulx\libc.a(libc_a-callocr.o)
 .debug_aranges
                0x000009e0       0x28 c:/intelfpga_lite/23.1std/nios2eds/bin/gnu/h-x86_64-mingw32/bin/../lib/gcc/nios2-elf/12.3.1/../../../../../H-x86_64-mingw32/nios2-elf/lib/mhw-mulx\libc.a(libc_a-fiprintf.o)
 .debug_aranges
                0x00000a08       0x20 c:/intelfpga_lite/23.1std/nios2eds/bin/gnu/h-x86_64-mingw32/bin/../lib/gcc/nios2-elf/12.3.1/../../../../../H-x86_64-mingw32/nios2-elf/lib/mhw-mulx\libc.a(libc_a-vfiprintfr_1.o)
 .debug_aranges
                0x00000a28       0x20 c:/intelfpga_lite/23.1std/nios2eds/bin/gnu/h-x86_64-mingw32/bin/../lib/gcc/nios2-elf/12.3.1/../../../../../H-x86_64-mingw32/nios2-elf/lib/mhw-mulx\libc.a(libc_a-errno.o)
 .debug_aranges
                0x00000a48       0x20 c:/intelfpga_lite/23.1std/nios2eds/bin/gnu/h-x86_64-mingw32/bin/../lib/gcc/nios2-elf/12.3.1/../../../../../H-x86_64-mingw32/nios2-elf/lib/mhw-mulx\libc.a(libc_a-abort.o)
 .debug_aranges
                0x00000a68       0x58 c:/intelfpga_lite/23.1std/nios2eds/bin/gnu/h-x86_64-mingw32/bin/../lib/gcc/nios2-elf/12.3.1/../../../../../H-x86_64-mingw32/nios2-elf/lib/mhw-mulx\libc.a(libc_a-signal.o)
 .debug_aranges
                0x00000ac0       0x28 c:/intelfpga_lite/23.1std/nios2eds/bin/gnu/h-x86_64-mingw32/bin/../lib/gcc/nios2-elf/12.3.1/../../../../../H-x86_64-mingw32/nios2-elf/lib/mhw-mulx\libc.a(libc_a-signalr.o)
 .debug_aranges
                0x00000ae8       0x20 c:/intelfpga_lite/23.1std/nios2eds/bin/gnu/h-x86_64-mingw32/bin/../lib/gcc/nios2-elf/12.3.1/mhw-mulx\libgcc.a(_udivdi3.o)
 .debug_aranges
                0x00000b08       0x20 c:/intelfpga_lite/23.1std/nios2eds/bin/gnu/h-x86_64-mingw32/bin/../lib/gcc/nios2-elf/12.3.1/mhw-mulx\libgcc.a(_umoddi3.o)
 .debug_aranges
                0x00000b28       0x20 c:/intelfpga_lite/23.1std/nios2eds/bin/gnu/h-x86_64-mingw32/bin/../lib/gcc/nios2-elf/12.3.1/mhw-mulx\libgcc.a(lib2-divmod.o)
 .debug_aranges
                0x00000b48       0x20 c:/intelfpga_lite/23.1std/nios2eds/bin/gnu/h-x86_64-mingw32/bin/../lib/gcc/nios2-elf/12.3.1/mhw-mulx\libgcc.a(adddf3.o)
 .debug_aranges
                0x00000b68       0x20 c:/intelfpga_lite/23.1std/nios2eds/bin/gnu/h-x86_64-mingw32/bin/../lib/gcc/nios2-elf/12.3.1/mhw-mulx\libgcc.a(divdf3.o)
 .debug_aranges
                0x00000b88       0x20 c:/intelfpga_lite/23.1std/nios2eds/bin/gnu/h-x86_64-mingw32/bin/../lib/gcc/nios2-elf/12.3.1/mhw-mulx\libgcc.a(eqdf2.o)
 .debug_aranges
                0x00000ba8       0x20 c:/intelfpga_lite/23.1std/nios2eds/bin/gnu/h-x86_64-mingw32/bin/../lib/gcc/nios2-elf/12.3.1/mhw-mulx\libgcc.a(gedf2.o)
 .debug_aranges
                0x00000bc8       0x20 c:/intelfpga_lite/23.1std/nios2eds/bin/gnu/h-x86_64-mingw32/bin/../lib/gcc/nios2-elf/12.3.1/mhw-mulx\libgcc.a(ledf2.o)
 .debug_aranges
                0x00000be8       0x20 c:/intelfpga_lite/23.1std/nios2eds/bin/gnu/h-x86_64-mingw32/bin/../lib/gcc/nios2-elf/12.3.1/mhw-mulx\libgcc.a(muldf3.o)
 .debug_aranges
                0x00000c08       0x20 c:/intelfpga_lite/23.1std/nios2eds/bin/gnu/h-x86_64-mingw32/bin/../lib/gcc/nios2-elf/12.3.1/mhw-mulx\libgcc.a(subdf3.o)
 .debug_aranges
                0x00000c28       0x20 c:/intelfpga_lite/23.1std/nios2eds/bin/gnu/h-x86_64-mingw32/bin/../lib/gcc/nios2-elf/12.3.1/mhw-mulx\libgcc.a(unorddf2.o)
 .debug_aranges
                0x00000c48       0x20 c:/intelfpga_lite/23.1std/nios2eds/bin/gnu/h-x86_64-mingw32/bin/../lib/gcc/nios2-elf/12.3.1/mhw-mulx\libgcc.a(fixdfsi.o)
 .debug_aranges
                0x00000c68       0x20 c:/intelfpga_lite/23.1std/nios2eds/bin/gnu/h-x86_64-mingw32/bin/../lib/gcc/nios2-elf/12.3.1/mhw-mulx\libgcc.a(floatsidf.o)
 .debug_aranges
                0x00000c88       0x20 c:/intelfpga_lite/23.1std/nios2eds/bin/gnu/h-x86_64-mingw32/bin/../lib/gcc/nios2-elf/12.3.1/mhw-mulx\libgcc.a(floatunsidf.o)
 .debug_aranges
                0x00000ca8       0x20 c:/Users/Galileo/Projects/ELEC60011-fpga/system_template_de1_soc/software/hello_world2_bsp/\libhal_bsp.a(alt_close.o)
 .debug_aranges
                0x00000cc8       0x20 c:/Users/Galileo/Projects/ELEC60011-fpga/system_template_de1_soc/software/hello_world2_bsp/\libhal_bsp.a(alt_dev.o)
 .debug_aranges
                0x00000ce8       0x18 c:/Users/Galileo/Projects/ELEC60011-fpga/system_template_de1_soc/software/hello_world2_bsp/\libhal_bsp.a(alt_errno.o)
 .debug_aranges
                0x00000d00       0x20 c:/Users/Galileo/Projects/ELEC60011-fpga/system_template_de1_soc/software/hello_world2_bsp/\libhal_bsp.a(alt_exit.o)
 .debug_aranges
                0x00000d20       0x20 c:/Users/Galileo/Projects/ELEC60011-fpga/system_template_de1_soc/software/hello_world2_bsp/\libhal_bsp.a(alt_fstat.o)
 .debug_aranges
                0x00000d40       0x20 c:/Users/Galileo/Projects/ELEC60011-fpga/system_template_de1_soc/software/hello_world2_bsp/\libhal_bsp.a(alt_getpid.o)
 .debug_aranges
                0x00000d60       0x20 c:/Users/Galileo/Projects/ELEC60011-fpga/system_template_de1_soc/software/hello_world2_bsp/\libhal_bsp.a(alt_isatty.o)
 .debug_aranges
                0x00000d80       0x20 c:/Users/Galileo/Projects/ELEC60011-fpga/system_template_de1_soc/software/hello_world2_bsp/\libhal_bsp.a(alt_kill.o)
 .debug_aranges
                0x00000da0       0x20 c:/Users/Galileo/Projects/ELEC60011-fpga/system_template_de1_soc/software/hello_world2_bsp/\libhal_bsp.a(alt_load.o)
 .debug_aranges
                0x00000dc0       0x20 c:/Users/Galileo/Projects/ELEC60011-fpga/system_template_de1_soc/software/hello_world2_bsp/\libhal_bsp.a(alt_lseek.o)
 .debug_aranges
                0x00000de0       0x20 c:/Users/Galileo/Projects/ELEC60011-fpga/system_template_de1_soc/software/hello_world2_bsp/\libhal_bsp.a(alt_main.o)
 .debug_aranges
                0x00000e00       0x20 c:/Users/Galileo/Projects/ELEC60011-fpga/system_template_de1_soc/software/hello_world2_bsp/\libhal_bsp.a(alt_malloc_lock.o)
 .debug_aranges
                0x00000e20       0x20 c:/Users/Galileo/Projects/ELEC60011-fpga/system_template_de1_soc/software/hello_world2_bsp/\libhal_bsp.a(alt_read.o)
 .debug_aranges
                0x00000e40       0x20 c:/Users/Galileo/Projects/ELEC60011-fpga/system_template_de1_soc/software/hello_world2_bsp/\libhal_bsp.a(alt_release_fd.o)
 .debug_aranges
                0x00000e60       0x20 c:/Users/Galileo/Projects/ELEC60011-fpga/system_template_de1_soc/software/hello_world2_bsp/\libhal_bsp.a(alt_sbrk.o)
 .debug_aranges
                0x00000e80       0x20 c:/Users/Galileo/Projects/ELEC60011-fpga/system_template_de1_soc/software/hello_world2_bsp/\libhal_bsp.a(alt_times.o)
 .debug_aranges
                0x00000ea0       0x20 c:/Users/Galileo/Projects/ELEC60011-fpga/system_template_de1_soc/software/hello_world2_bsp/\libhal_bsp.a(alt_write.o)
 .debug_aranges
                0x00000ec0       0x20 c:/Users/Galileo/Projects/ELEC60011-fpga/system_template_de1_soc/software/hello_world2_bsp/\libhal_bsp.a(alt_sys_init.o)
 .debug_aranges
                0x00000ee0       0x20 c:/Users/Galileo/Projects/ELEC60011-fpga/system_template_de1_soc/software/hello_world2_bsp/\libhal_bsp.a(altera_avalon_jtag_uart_fd.o)
 .debug_aranges
                0x00000f00       0x20 c:/Users/Galileo/Projects/ELEC60011-fpga/system_template_de1_soc/software/hello_world2_bsp/\libhal_bsp.a(altera_avalon_jtag_uart_read.o)
 .debug_aranges
                0x00000f20       0x20 c:/Users/Galileo/Projects/ELEC60011-fpga/system_template_de1_soc/software/hello_world2_bsp/\libhal_bsp.a(altera_avalon_jtag_uart_write.o)
 .debug_aranges
                0x00000f40       0x20 c:/Users/Galileo/Projects/ELEC60011-fpga/system_template_de1_soc/software/hello_world2_bsp/\libhal_bsp.a(altera_avalon_timer_sc.o)
 .debug_aranges
                0x00000f60       0x20 c:/Users/Galileo/Projects/ELEC60011-fpga/system_template_de1_soc/software/hello_world2_bsp/\libhal_bsp.a(alt_dcache_flush_all.o)
 .debug_aranges
                0x00000f80       0x20 c:/Users/Galileo/Projects/ELEC60011-fpga/system_template_de1_soc/software/hello_world2_bsp/\libhal_bsp.a(alt_dev_llist_insert.o)
 .debug_aranges
                0x00000fa0       0x20 c:/Users/Galileo/Projects/ELEC60011-fpga/system_template_de1_soc/software/hello_world2_bsp/\libhal_bsp.a(alt_icache_flush_all.o)
 .debug_aranges
                0x00000fc0       0x20 c:/Users/Galileo/Projects/ELEC60011-fpga/system_template_de1_soc/software/hello_world2_bsp/\libhal_bsp.a(alt_iic.o)
 .debug_aranges
                0x00000fe0       0x20 c:/Users/Galileo/Projects/ELEC60011-fpga/system_template_de1_soc/software/hello_world2_bsp/\libhal_bsp.a(alt_iic_isr_register.o)
 .debug_aranges
                0x00001000       0x20 c:/Users/Galileo/Projects/ELEC60011-fpga/system_template_de1_soc/software/hello_world2_bsp/\libhal_bsp.a(alt_io_redirect.o)
 .debug_aranges
                0x00001020       0x30 c:/Users/Galileo/Projects/ELEC60011-fpga/system_template_de1_soc/software/hello_world2_bsp/\libhal_bsp.a(alt_irq_entry.o)
 .debug_aranges
                0x00001050       0x20 c:/Users/Galileo/Projects/ELEC60011-fpga/system_template_de1_soc/software/hello_world2_bsp/\libhal_bsp.a(alt_irq_handler.o)
 .debug_aranges
                0x00001070       0x18 c:/Users/Galileo/Projects/ELEC60011-fpga/system_template_de1_soc/software/hello_world2_bsp/\libhal_bsp.a(alt_irq_vars.o)
 .debug_aranges
                0x00001088       0x20 c:/Users/Galileo/Projects/ELEC60011-fpga/system_template_de1_soc/software/hello_world2_bsp/\libhal_bsp.a(alt_open.o)
 .debug_aranges
                0x000010a8       0x20 c:/Users/Galileo/Projects/ELEC60011-fpga/system_template_de1_soc/software/hello_world2_bsp/\libhal_bsp.a(alt_tick.o)
 .debug_aranges
                0x000010c8       0x20 c:/Users/Galileo/Projects/ELEC60011-fpga/system_template_de1_soc/software/hello_world2_bsp/\libhal_bsp.a(altera_nios2_gen2_irq.o)
 .debug_aranges
                0x000010e8       0x30 c:/Users/Galileo/Projects/ELEC60011-fpga/system_template_de1_soc/software/hello_world2_bsp/\libhal_bsp.a(alt_exception_entry.o)
 .debug_aranges
                0x00001118       0x20 c:/Users/Galileo/Projects/ELEC60011-fpga/system_template_de1_soc/software/hello_world2_bsp/\libhal_bsp.a(alt_find_dev.o)
 .debug_aranges
                0x00001138       0x20 c:/Users/Galileo/Projects/ELEC60011-fpga/system_template_de1_soc/software/hello_world2_bsp/\libhal_bsp.a(alt_find_file.o)
 .debug_aranges
                0x00001158       0x20 c:/Users/Galileo/Projects/ELEC60011-fpga/system_template_de1_soc/software/hello_world2_bsp/\libhal_bsp.a(alt_get_fd.o)
 .debug_aranges
                0x00001178       0x20 c:/Users/Galileo/Projects/ELEC60011-fpga/system_template_de1_soc/software/hello_world2_bsp/\libhal_bsp.a(alt_icache_flush.o)
 .debug_aranges
                0x00001198       0x28 c:/Users/Galileo/Projects/ELEC60011-fpga/system_template_de1_soc/software/hello_world2_bsp/\libhal_bsp.a(alt_instruction_exception_entry.o)
 .debug_aranges
                0x000011c0       0x20 c:/intelfpga_lite/23.1std/nios2eds/bin/gnu/h-x86_64-mingw32/bin/../lib/gcc/nios2-elf/12.3.1/../../../../../H-x86_64-mingw32/nios2-elf/lib/mhw-mulx\libc.a(libc_a-memcmp.o)

.debug_pubnames
 *(.debug_pubnames)

.debug_info     0x00000000    0x2a77b
 *(.debug_info .gnu.linkonce.wi.*)
 .debug_info    0x00000000       0x3f c:/Users/Galileo/Projects/ELEC60011-fpga/system_template_de1_soc/software/hello_world2_bsp//obj/HAL/src/crt0.o
 .debug_info    0x0000003f      0x268 obj/default/hello_world.o
 .debug_info    0x000002a7      0x236 c:/intelfpga_lite/23.1std/nios2eds/bin/gnu/h-x86_64-mingw32/bin/../lib/gcc/nios2-elf/12.3.1/../../../../../H-x86_64-mingw32/nios2-elf/lib/mhw-mulx\libm.a(libm_a-sf_cos.o)
 .debug_info    0x000004dd      0x307 c:/intelfpga_lite/23.1std/nios2eds/bin/gnu/h-x86_64-mingw32/bin/../lib/gcc/nios2-elf/12.3.1/../../../../../H-x86_64-mingw32/nios2-elf/lib/mhw-mulx\libm.a(libm_a-kf_cos.o)
 .debug_info    0x000007e4      0x2df c:/intelfpga_lite/23.1std/nios2eds/bin/gnu/h-x86_64-mingw32/bin/../lib/gcc/nios2-elf/12.3.1/../../../../../H-x86_64-mingw32/nios2-elf/lib/mhw-mulx\libm.a(libm_a-kf_sin.o)
 .debug_info    0x00000ac3      0x608 c:/intelfpga_lite/23.1std/nios2eds/bin/gnu/h-x86_64-mingw32/bin/../lib/gcc/nios2-elf/12.3.1/../../../../../H-x86_64-mingw32/nios2-elf/lib/mhw-mulx\libm.a(libm_a-ef_rem_pio2.o)
 .debug_info    0x000010cb      0x13e c:/intelfpga_lite/23.1std/nios2eds/bin/gnu/h-x86_64-mingw32/bin/../lib/gcc/nios2-elf/12.3.1/../../../../../H-x86_64-mingw32/nios2-elf/lib/mhw-mulx\libm.a(libm_a-sf_fabs.o)
 .debug_info    0x00001209      0x5a1 c:/intelfpga_lite/23.1std/nios2eds/bin/gnu/h-x86_64-mingw32/bin/../lib/gcc/nios2-elf/12.3.1/../../../../../H-x86_64-mingw32/nios2-elf/lib/mhw-mulx\libm.a(libm_a-kf_rem_pio2.o)
 .debug_info    0x000017aa      0x1d5 c:/intelfpga_lite/23.1std/nios2eds/bin/gnu/h-x86_64-mingw32/bin/../lib/gcc/nios2-elf/12.3.1/../../../../../H-x86_64-mingw32/nios2-elf/lib/mhw-mulx\libm.a(libm_a-sf_floor.o)
 .debug_info    0x0000197f      0x242 c:/intelfpga_lite/23.1std/nios2eds/bin/gnu/h-x86_64-mingw32/bin/../lib/gcc/nios2-elf/12.3.1/../../../../../H-x86_64-mingw32/nios2-elf/lib/mhw-mulx\libm.a(libm_a-sf_scalbn.o)
 .debug_info    0x00001bc1      0x328 c:/intelfpga_lite/23.1std/nios2eds/bin/gnu/h-x86_64-mingw32/bin/../lib/gcc/nios2-elf/12.3.1/mhw-mulx\libgcc.a(addsf3.o)
 .debug_info    0x00001ee9      0x33e c:/intelfpga_lite/23.1std/nios2eds/bin/gnu/h-x86_64-mingw32/bin/../lib/gcc/nios2-elf/12.3.1/mhw-mulx\libgcc.a(divsf3.o)
 .debug_info    0x00002227      0x219 c:/intelfpga_lite/23.1std/nios2eds/bin/gnu/h-x86_64-mingw32/bin/../lib/gcc/nios2-elf/12.3.1/mhw-mulx\libgcc.a(eqsf2.o)
 .debug_info    0x00002440      0x225 c:/intelfpga_lite/23.1std/nios2eds/bin/gnu/h-x86_64-mingw32/bin/../lib/gcc/nios2-elf/12.3.1/mhw-mulx\libgcc.a(gesf2.o)
 .debug_info    0x00002665      0x3b3 c:/intelfpga_lite/23.1std/nios2eds/bin/gnu/h-x86_64-mingw32/bin/../lib/gcc/nios2-elf/12.3.1/mhw-mulx\libgcc.a(mulsf3.o)
 .debug_info    0x00002a18      0x328 c:/intelfpga_lite/23.1std/nios2eds/bin/gnu/h-x86_64-mingw32/bin/../lib/gcc/nios2-elf/12.3.1/mhw-mulx\libgcc.a(subsf3.o)
 .debug_info    0x00002d40      0x1bc c:/intelfpga_lite/23.1std/nios2eds/bin/gnu/h-x86_64-mingw32/bin/../lib/gcc/nios2-elf/12.3.1/mhw-mulx\libgcc.a(fixsfsi.o)
 .debug_info    0x00002efc      0x22a c:/intelfpga_lite/23.1std/nios2eds/bin/gnu/h-x86_64-mingw32/bin/../lib/gcc/nios2-elf/12.3.1/mhw-mulx\libgcc.a(floatsisf.o)
 .debug_info    0x00003126      0x139 c:/intelfpga_lite/23.1std/nios2eds/bin/gnu/h-x86_64-mingw32/bin/../lib/gcc/nios2-elf/12.3.1/mhw-mulx\libgcc.a(_clzsi2.o)
 .debug_info    0x0000325f       0xc3 c:/intelfpga_lite/23.1std/nios2eds/bin/gnu/h-x86_64-mingw32/bin/../lib/gcc/nios2-elf/12.3.1/mhw-mulx\libgcc.a(_clz.o)
 .debug_info    0x00003322      0x750 c:/intelfpga_lite/23.1std/nios2eds/bin/gnu/h-x86_64-mingw32/bin/../lib/gcc/nios2-elf/12.3.1/../../../../../H-x86_64-mingw32/nios2-elf/lib/mhw-mulx\libc.a(libc_a-rand.o)
 .debug_info    0x00003a72      0x862 c:/intelfpga_lite/23.1std/nios2eds/bin/gnu/h-x86_64-mingw32/bin/../lib/gcc/nios2-elf/12.3.1/../../../../../H-x86_64-mingw32/nios2-elf/lib/mhw-mulx\libc.a(libc_a-printf.o)
 .debug_info    0x000042d4      0x8f2 c:/intelfpga_lite/23.1std/nios2eds/bin/gnu/h-x86_64-mingw32/bin/../lib/gcc/nios2-elf/12.3.1/../../../../../H-x86_64-mingw32/nios2-elf/lib/mhw-mulx\libc.a(libc_a-puts.o)
 .debug_info    0x00004bc6       0xeb c:/intelfpga_lite/23.1std/nios2eds/bin/gnu/h-x86_64-mingw32/bin/../lib/gcc/nios2-elf/12.3.1/../../../../../H-x86_64-mingw32/nios2-elf/lib/mhw-mulx\libc.a(libc_a-strlen.o)
 .debug_info    0x00004cb1      0x729 c:/intelfpga_lite/23.1std/nios2eds/bin/gnu/h-x86_64-mingw32/bin/../lib/gcc/nios2-elf/12.3.1/../../../../../H-x86_64-mingw32/nios2-elf/lib/mhw-mulx\libc.a(libc_a-impure.o)
 .debug_info    0x000053da     0x1a7e c:/intelfpga_lite/23.1std/nios2eds/bin/gnu/h-x86_64-mingw32/bin/../lib/gcc/nios2-elf/12.3.1/../../../../../H-x86_64-mingw32/nios2-elf/lib/mhw-mulx\libc.a(libc_a-vfprintf.o)
 .debug_info    0x00006e58     0x1837 c:/intelfpga_lite/23.1std/nios2eds/bin/gnu/h-x86_64-mingw32/bin/../lib/gcc/nios2-elf/12.3.1/../../../../../H-x86_64-mingw32/nios2-elf/lib/mhw-mulx\libc.a(libc_a-vfiprintf.o)
 .debug_info    0x0000868f      0xa47 c:/intelfpga_lite/23.1std/nios2eds/bin/gnu/h-x86_64-mingw32/bin/../lib/gcc/nios2-elf/12.3.1/../../../../../H-x86_64-mingw32/nios2-elf/lib/mhw-mulx\libc.a(libc_a-fflush.o)
 .debug_info    0x000090d6      0xe98 c:/intelfpga_lite/23.1std/nios2eds/bin/gnu/h-x86_64-mingw32/bin/../lib/gcc/nios2-elf/12.3.1/../../../../../H-x86_64-mingw32/nios2-elf/lib/mhw-mulx\libc.a(libc_a-findfp.o)
 .debug_info    0x00009f6e      0xb1e c:/intelfpga_lite/23.1std/nios2eds/bin/gnu/h-x86_64-mingw32/bin/../lib/gcc/nios2-elf/12.3.1/../../../../../H-x86_64-mingw32/nios2-elf/lib/mhw-mulx\libc.a(libc_a-fvwrite.o)
 .debug_info    0x0000aa8c      0x7e4 c:/intelfpga_lite/23.1std/nios2eds/bin/gnu/h-x86_64-mingw32/bin/../lib/gcc/nios2-elf/12.3.1/../../../../../H-x86_64-mingw32/nios2-elf/lib/mhw-mulx\libc.a(libc_a-fwalk.o)
 .debug_info    0x0000b270      0xa5b c:/intelfpga_lite/23.1std/nios2eds/bin/gnu/h-x86_64-mingw32/bin/../lib/gcc/nios2-elf/12.3.1/../../../../../H-x86_64-mingw32/nios2-elf/lib/mhw-mulx\libc.a(libc_a-stdio.o)
 .debug_info    0x0000bccb      0x7cf c:/intelfpga_lite/23.1std/nios2eds/bin/gnu/h-x86_64-mingw32/bin/../lib/gcc/nios2-elf/12.3.1/../../../../../H-x86_64-mingw32/nios2-elf/lib/mhw-mulx\libc.a(libc_a-wsetup.o)
 .debug_info    0x0000c49a      0x9d9 c:/intelfpga_lite/23.1std/nios2eds/bin/gnu/h-x86_64-mingw32/bin/../lib/gcc/nios2-elf/12.3.1/../../../../../H-x86_64-mingw32/nios2-elf/lib/mhw-mulx\libc.a(libc_a-fputwc.o)
 .debug_info    0x0000ce73      0x14a c:/intelfpga_lite/23.1std/nios2eds/bin/gnu/h-x86_64-mingw32/bin/../lib/gcc/nios2-elf/12.3.1/../../../../../H-x86_64-mingw32/nios2-elf/lib/mhw-mulx\libc.a(libc_a-memchr.o)
 .debug_info    0x0000cfbd      0x157 c:/intelfpga_lite/23.1std/nios2eds/bin/gnu/h-x86_64-mingw32/bin/../lib/gcc/nios2-elf/12.3.1/../../../../../H-x86_64-mingw32/nios2-elf/lib/mhw-mulx\libc.a(libc_a-memcpy.o)
 .debug_info    0x0000d114      0x14d c:/intelfpga_lite/23.1std/nios2eds/bin/gnu/h-x86_64-mingw32/bin/../lib/gcc/nios2-elf/12.3.1/../../../../../H-x86_64-mingw32/nios2-elf/lib/mhw-mulx\libc.a(libc_a-memmove.o)
 .debug_info    0x0000d261      0x135 c:/intelfpga_lite/23.1std/nios2eds/bin/gnu/h-x86_64-mingw32/bin/../lib/gcc/nios2-elf/12.3.1/../../../../../H-x86_64-mingw32/nios2-elf/lib/mhw-mulx\libc.a(libc_a-memset.o)
 .debug_info    0x0000d396      0xbdb c:/intelfpga_lite/23.1std/nios2eds/bin/gnu/h-x86_64-mingw32/bin/../lib/gcc/nios2-elf/12.3.1/../../../../../H-x86_64-mingw32/nios2-elf/lib/mhw-mulx\libc.a(libc_a-locale.o)
 .debug_info    0x0000df71      0xa20 c:/intelfpga_lite/23.1std/nios2eds/bin/gnu/h-x86_64-mingw32/bin/../lib/gcc/nios2-elf/12.3.1/../../../../../H-x86_64-mingw32/nios2-elf/lib/mhw-mulx\libc.a(libc_a-localeconv.o)
 .debug_info    0x0000e991      0x76a c:/intelfpga_lite/23.1std/nios2eds/bin/gnu/h-x86_64-mingw32/bin/../lib/gcc/nios2-elf/12.3.1/../../../../../H-x86_64-mingw32/nios2-elf/lib/mhw-mulx\libc.a(libc_a-closer.o)
 .debug_info    0x0000f0fb      0x7e5 c:/intelfpga_lite/23.1std/nios2eds/bin/gnu/h-x86_64-mingw32/bin/../lib/gcc/nios2-elf/12.3.1/../../../../../H-x86_64-mingw32/nios2-elf/lib/mhw-mulx\libc.a(libc_a-reent.o)
 .debug_info    0x0000f8e0      0x7c1 c:/intelfpga_lite/23.1std/nios2eds/bin/gnu/h-x86_64-mingw32/bin/../lib/gcc/nios2-elf/12.3.1/../../../../../H-x86_64-mingw32/nios2-elf/lib/mhw-mulx\libc.a(libc_a-lseekr.o)
 .debug_info    0x000100a1      0x7c0 c:/intelfpga_lite/23.1std/nios2eds/bin/gnu/h-x86_64-mingw32/bin/../lib/gcc/nios2-elf/12.3.1/../../../../../H-x86_64-mingw32/nios2-elf/lib/mhw-mulx\libc.a(libc_a-readr.o)
 .debug_info    0x00010861      0x7c6 c:/intelfpga_lite/23.1std/nios2eds/bin/gnu/h-x86_64-mingw32/bin/../lib/gcc/nios2-elf/12.3.1/../../../../../H-x86_64-mingw32/nios2-elf/lib/mhw-mulx\libc.a(libc_a-writer.o)
 .debug_info    0x00011027     0x18d0 c:/intelfpga_lite/23.1std/nios2eds/bin/gnu/h-x86_64-mingw32/bin/../lib/gcc/nios2-elf/12.3.1/../../../../../H-x86_64-mingw32/nios2-elf/lib/mhw-mulx\libc.a(libc_a-dtoa.o)
 .debug_info    0x000128f7      0x115 c:/intelfpga_lite/23.1std/nios2eds/bin/gnu/h-x86_64-mingw32/bin/../lib/gcc/nios2-elf/12.3.1/../../../../../H-x86_64-mingw32/nios2-elf/lib/mhw-mulx\libc.a(libc_a-exit.o)
 .debug_info    0x00012a0c      0xb06 c:/intelfpga_lite/23.1std/nios2eds/bin/gnu/h-x86_64-mingw32/bin/../lib/gcc/nios2-elf/12.3.1/../../../../../H-x86_64-mingw32/nios2-elf/lib/mhw-mulx\libc.a(libc_a-freer.o)
 .debug_info    0x00013512      0xcb2 c:/intelfpga_lite/23.1std/nios2eds/bin/gnu/h-x86_64-mingw32/bin/../lib/gcc/nios2-elf/12.3.1/../../../../../H-x86_64-mingw32/nios2-elf/lib/mhw-mulx\libc.a(libc_a-mallocr.o)
 .debug_info    0x000141c4      0xaab c:/intelfpga_lite/23.1std/nios2eds/bin/gnu/h-x86_64-mingw32/bin/../lib/gcc/nios2-elf/12.3.1/../../../../../H-x86_64-mingw32/nios2-elf/lib/mhw-mulx\libc.a(libc_a-mbtowc_r.o)
 .debug_info    0x00014c6f     0x1e3d c:/intelfpga_lite/23.1std/nios2eds/bin/gnu/h-x86_64-mingw32/bin/../lib/gcc/nios2-elf/12.3.1/../../../../../H-x86_64-mingw32/nios2-elf/lib/mhw-mulx\libc.a(libc_a-mprec.o)
 .debug_info    0x00016aac      0xbfe c:/intelfpga_lite/23.1std/nios2eds/bin/gnu/h-x86_64-mingw32/bin/../lib/gcc/nios2-elf/12.3.1/../../../../../H-x86_64-mingw32/nios2-elf/lib/mhw-mulx\libc.a(libc_a-reallocr.o)
 .debug_info    0x000176aa      0xa63 c:/intelfpga_lite/23.1std/nios2eds/bin/gnu/h-x86_64-mingw32/bin/../lib/gcc/nios2-elf/12.3.1/../../../../../H-x86_64-mingw32/nios2-elf/lib/mhw-mulx\libc.a(libc_a-wctomb_r.o)
 .debug_info    0x0001810d      0xb22 c:/intelfpga_lite/23.1std/nios2eds/bin/gnu/h-x86_64-mingw32/bin/../lib/gcc/nios2-elf/12.3.1/../../../../../H-x86_64-mingw32/nios2-elf/lib/mhw-mulx\libc.a(libc_a-wcrtomb.o)
 .debug_info    0x00018c2f       0xed c:/intelfpga_lite/23.1std/nios2eds/bin/gnu/h-x86_64-mingw32/bin/../lib/gcc/nios2-elf/12.3.1/../../../../../H-x86_64-mingw32/nios2-elf/lib/mhw-mulx\libc.a(libc_a-ctype_.o)
 .debug_info    0x00018d1c      0x8de c:/intelfpga_lite/23.1std/nios2eds/bin/gnu/h-x86_64-mingw32/bin/../lib/gcc/nios2-elf/12.3.1/../../../../../H-x86_64-mingw32/nios2-elf/lib/mhw-mulx\libc.a(libc_a-fclose.o)
 .debug_info    0x000195fa      0xc31 c:/intelfpga_lite/23.1std/nios2eds/bin/gnu/h-x86_64-mingw32/bin/../lib/gcc/nios2-elf/12.3.1/../../../../../H-x86_64-mingw32/nios2-elf/lib/mhw-mulx\libc.a(libc_a-makebuf.o)
 .debug_info    0x0001a22b      0x875 c:/intelfpga_lite/23.1std/nios2eds/bin/gnu/h-x86_64-mingw32/bin/../lib/gcc/nios2-elf/12.3.1/../../../../../H-x86_64-mingw32/nios2-elf/lib/mhw-mulx\libc.a(libc_a-wbuf.o)
 .debug_info    0x0001aaa0       0xeb c:/intelfpga_lite/23.1std/nios2eds/bin/gnu/h-x86_64-mingw32/bin/../lib/gcc/nios2-elf/12.3.1/../../../../../H-x86_64-mingw32/nios2-elf/lib/mhw-mulx\libc.a(libc_a-strcmp.o)
 .debug_info    0x0001ab8b      0x989 c:/intelfpga_lite/23.1std/nios2eds/bin/gnu/h-x86_64-mingw32/bin/../lib/gcc/nios2-elf/12.3.1/../../../../../H-x86_64-mingw32/nios2-elf/lib/mhw-mulx\libc.a(libc_a-fstatr.o)
 .debug_info    0x0001b514      0x76a c:/intelfpga_lite/23.1std/nios2eds/bin/gnu/h-x86_64-mingw32/bin/../lib/gcc/nios2-elf/12.3.1/../../../../../H-x86_64-mingw32/nios2-elf/lib/mhw-mulx\libc.a(libc_a-isattyr.o)
 .debug_info    0x0001bc7e      0x789 c:/intelfpga_lite/23.1std/nios2eds/bin/gnu/h-x86_64-mingw32/bin/../lib/gcc/nios2-elf/12.3.1/../../../../../H-x86_64-mingw32/nios2-elf/lib/mhw-mulx\libc.a(libc_a-sbrkr.o)
 .debug_info    0x0001c407      0x231 c:/intelfpga_lite/23.1std/nios2eds/bin/gnu/h-x86_64-mingw32/bin/../lib/gcc/nios2-elf/12.3.1/../../../../../H-x86_64-mingw32/nios2-elf/lib/mhw-mulx\libc.a(libc_a-__call_atexit.o)
 .debug_info    0x0001c638      0x825 c:/intelfpga_lite/23.1std/nios2eds/bin/gnu/h-x86_64-mingw32/bin/../lib/gcc/nios2-elf/12.3.1/../../../../../H-x86_64-mingw32/nios2-elf/lib/mhw-mulx\libc.a(libc_a-assert.o)
 .debug_info    0x0001ce5d      0x8cc c:/intelfpga_lite/23.1std/nios2eds/bin/gnu/h-x86_64-mingw32/bin/../lib/gcc/nios2-elf/12.3.1/../../../../../H-x86_64-mingw32/nios2-elf/lib/mhw-mulx\libc.a(libc_a-callocr.o)
 .debug_info    0x0001d729      0x869 c:/intelfpga_lite/23.1std/nios2eds/bin/gnu/h-x86_64-mingw32/bin/../lib/gcc/nios2-elf/12.3.1/../../../../../H-x86_64-mingw32/nios2-elf/lib/mhw-mulx\libc.a(libc_a-fiprintf.o)
 .debug_info    0x0001df92      0x7c7 c:/intelfpga_lite/23.1std/nios2eds/bin/gnu/h-x86_64-mingw32/bin/../lib/gcc/nios2-elf/12.3.1/../../../../../H-x86_64-mingw32/nios2-elf/lib/mhw-mulx\libc.a(libc_a-vfiprintfr_1.o)
 .debug_info    0x0001e759      0x70f c:/intelfpga_lite/23.1std/nios2eds/bin/gnu/h-x86_64-mingw32/bin/../lib/gcc/nios2-elf/12.3.1/../../../../../H-x86_64-mingw32/nios2-elf/lib/mhw-mulx\libc.a(libc_a-errno.o)
 .debug_info    0x0001ee68       0xd8 c:/intelfpga_lite/23.1std/nios2eds/bin/gnu/h-x86_64-mingw32/bin/../lib/gcc/nios2-elf/12.3.1/../../../../../H-x86_64-mingw32/nios2-elf/lib/mhw-mulx\libc.a(libc_a-abort.o)
 .debug_info    0x0001ef40      0xc4c c:/intelfpga_lite/23.1std/nios2eds/bin/gnu/h-x86_64-mingw32/bin/../lib/gcc/nios2-elf/12.3.1/../../../../../H-x86_64-mingw32/nios2-elf/lib/mhw-mulx\libc.a(libc_a-signal.o)
 .debug_info    0x0001fb8c      0x7f1 c:/intelfpga_lite/23.1std/nios2eds/bin/gnu/h-x86_64-mingw32/bin/../lib/gcc/nios2-elf/12.3.1/../../../../../H-x86_64-mingw32/nios2-elf/lib/mhw-mulx\libc.a(libc_a-signalr.o)
 .debug_info    0x0002037d      0x8bd c:/intelfpga_lite/23.1std/nios2eds/bin/gnu/h-x86_64-mingw32/bin/../lib/gcc/nios2-elf/12.3.1/mhw-mulx\libgcc.a(_udivdi3.o)
 .debug_info    0x00020c3a      0x931 c:/intelfpga_lite/23.1std/nios2eds/bin/gnu/h-x86_64-mingw32/bin/../lib/gcc/nios2-elf/12.3.1/mhw-mulx\libgcc.a(_umoddi3.o)
 .debug_info    0x0002156b      0x347 c:/intelfpga_lite/23.1std/nios2eds/bin/gnu/h-x86_64-mingw32/bin/../lib/gcc/nios2-elf/12.3.1/mhw-mulx\libgcc.a(lib2-divmod.o)
 .debug_info    0x000218b2      0x59d c:/intelfpga_lite/23.1std/nios2eds/bin/gnu/h-x86_64-mingw32/bin/../lib/gcc/nios2-elf/12.3.1/mhw-mulx\libgcc.a(adddf3.o)
 .debug_info    0x00021e4f      0x7d3 c:/intelfpga_lite/23.1std/nios2eds/bin/gnu/h-x86_64-mingw32/bin/../lib/gcc/nios2-elf/12.3.1/mhw-mulx\libgcc.a(divdf3.o)
 .debug_info    0x00022622      0x235 c:/intelfpga_lite/23.1std/nios2eds/bin/gnu/h-x86_64-mingw32/bin/../lib/gcc/nios2-elf/12.3.1/mhw-mulx\libgcc.a(eqdf2.o)
 .debug_info    0x00022857      0x256 c:/intelfpga_lite/23.1std/nios2eds/bin/gnu/h-x86_64-mingw32/bin/../lib/gcc/nios2-elf/12.3.1/mhw-mulx\libgcc.a(gedf2.o)
 .debug_info    0x00022aad      0x256 c:/intelfpga_lite/23.1std/nios2eds/bin/gnu/h-x86_64-mingw32/bin/../lib/gcc/nios2-elf/12.3.1/mhw-mulx\libgcc.a(ledf2.o)
 .debug_info    0x00022d03      0x780 c:/intelfpga_lite/23.1std/nios2eds/bin/gnu/h-x86_64-mingw32/bin/../lib/gcc/nios2-elf/12.3.1/mhw-mulx\libgcc.a(muldf3.o)
 .debug_info    0x00023483      0x59d c:/intelfpga_lite/23.1std/nios2eds/bin/gnu/h-x86_64-mingw32/bin/../lib/gcc/nios2-elf/12.3.1/mhw-mulx\libgcc.a(subdf3.o)
 .debug_info    0x00023a20      0x216 c:/intelfpga_lite/23.1std/nios2eds/bin/gnu/h-x86_64-mingw32/bin/../lib/gcc/nios2-elf/12.3.1/mhw-mulx\libgcc.a(unorddf2.o)
 .debug_info    0x00023c36      0x1d9 c:/intelfpga_lite/23.1std/nios2eds/bin/gnu/h-x86_64-mingw32/bin/../lib/gcc/nios2-elf/12.3.1/mhw-mulx\libgcc.a(fixdfsi.o)
 .debug_info    0x00023e0f      0x289 c:/intelfpga_lite/23.1std/nios2eds/bin/gnu/h-x86_64-mingw32/bin/../lib/gcc/nios2-elf/12.3.1/mhw-mulx\libgcc.a(floatsidf.o)
 .debug_info    0x00024098      0x27e c:/intelfpga_lite/23.1std/nios2eds/bin/gnu/h-x86_64-mingw32/bin/../lib/gcc/nios2-elf/12.3.1/mhw-mulx\libgcc.a(floatunsidf.o)
 .debug_info    0x00024316      0x32f c:/Users/Galileo/Projects/ELEC60011-fpga/system_template_de1_soc/software/hello_world2_bsp/\libhal_bsp.a(alt_close.o)
 .debug_info    0x00024645      0x567 c:/Users/Galileo/Projects/ELEC60011-fpga/system_template_de1_soc/software/hello_world2_bsp/\libhal_bsp.a(alt_dev.o)
 .debug_info    0x00024bac       0xa8 c:/Users/Galileo/Projects/ELEC60011-fpga/system_template_de1_soc/software/hello_world2_bsp/\libhal_bsp.a(alt_errno.o)
 .debug_info    0x00024c54       0xe2 c:/Users/Galileo/Projects/ELEC60011-fpga/system_template_de1_soc/software/hello_world2_bsp/\libhal_bsp.a(alt_exit.o)
 .debug_info    0x00024d36      0x51b c:/Users/Galileo/Projects/ELEC60011-fpga/system_template_de1_soc/software/hello_world2_bsp/\libhal_bsp.a(alt_fstat.o)
 .debug_info    0x00025251       0x44 c:/Users/Galileo/Projects/ELEC60011-fpga/system_template_de1_soc/software/hello_world2_bsp/\libhal_bsp.a(alt_getpid.o)
 .debug_info    0x00025295      0x539 c:/Users/Galileo/Projects/ELEC60011-fpga/system_template_de1_soc/software/hello_world2_bsp/\libhal_bsp.a(alt_isatty.o)
 .debug_info    0x000257ce      0x10c c:/Users/Galileo/Projects/ELEC60011-fpga/system_template_de1_soc/software/hello_world2_bsp/\libhal_bsp.a(alt_kill.o)
 .debug_info    0x000258da      0x144 c:/Users/Galileo/Projects/ELEC60011-fpga/system_template_de1_soc/software/hello_world2_bsp/\libhal_bsp.a(alt_load.o)
 .debug_info    0x00025a1e      0x358 c:/Users/Galileo/Projects/ELEC60011-fpga/system_template_de1_soc/software/hello_world2_bsp/\libhal_bsp.a(alt_lseek.o)
 .debug_info    0x00025d76      0x174 c:/Users/Galileo/Projects/ELEC60011-fpga/system_template_de1_soc/software/hello_world2_bsp/\libhal_bsp.a(alt_main.o)
 .debug_info    0x00025eea      0x72b c:/Users/Galileo/Projects/ELEC60011-fpga/system_template_de1_soc/software/hello_world2_bsp/\libhal_bsp.a(alt_malloc_lock.o)
 .debug_info    0x00026615      0x544 c:/Users/Galileo/Projects/ELEC60011-fpga/system_template_de1_soc/software/hello_world2_bsp/\libhal_bsp.a(alt_read.o)
 .debug_info    0x00026b59      0x2ac c:/Users/Galileo/Projects/ELEC60011-fpga/system_template_de1_soc/software/hello_world2_bsp/\libhal_bsp.a(alt_release_fd.o)
 .debug_info    0x00026e05      0x194 c:/Users/Galileo/Projects/ELEC60011-fpga/system_template_de1_soc/software/hello_world2_bsp/\libhal_bsp.a(alt_sbrk.o)
 .debug_info    0x00026f99      0x1a3 c:/Users/Galileo/Projects/ELEC60011-fpga/system_template_de1_soc/software/hello_world2_bsp/\libhal_bsp.a(alt_times.o)
 .debug_info    0x0002713c      0x54a c:/Users/Galileo/Projects/ELEC60011-fpga/system_template_de1_soc/software/hello_world2_bsp/\libhal_bsp.a(alt_write.o)
 .debug_info    0x00027686      0x43c c:/Users/Galileo/Projects/ELEC60011-fpga/system_template_de1_soc/software/hello_world2_bsp/\libhal_bsp.a(alt_sys_init.o)
 .debug_info    0x00027ac2      0x3c9 c:/Users/Galileo/Projects/ELEC60011-fpga/system_template_de1_soc/software/hello_world2_bsp/\libhal_bsp.a(altera_avalon_jtag_uart_fd.o)
 .debug_info    0x00027e8b      0x144 c:/Users/Galileo/Projects/ELEC60011-fpga/system_template_de1_soc/software/hello_world2_bsp/\libhal_bsp.a(altera_avalon_jtag_uart_read.o)
 .debug_info    0x00027fcf      0x12b c:/Users/Galileo/Projects/ELEC60011-fpga/system_template_de1_soc/software/hello_world2_bsp/\libhal_bsp.a(altera_avalon_jtag_uart_write.o)
 .debug_info    0x000280fa      0x21d c:/Users/Galileo/Projects/ELEC60011-fpga/system_template_de1_soc/software/hello_world2_bsp/\libhal_bsp.a(altera_avalon_timer_sc.o)
 .debug_info    0x00028317       0xa1 c:/Users/Galileo/Projects/ELEC60011-fpga/system_template_de1_soc/software/hello_world2_bsp/\libhal_bsp.a(alt_dcache_flush_all.o)
 .debug_info    0x000283b8      0x1a8 c:/Users/Galileo/Projects/ELEC60011-fpga/system_template_de1_soc/software/hello_world2_bsp/\libhal_bsp.a(alt_dev_llist_insert.o)
 .debug_info    0x00028560       0xb2 c:/Users/Galileo/Projects/ELEC60011-fpga/system_template_de1_soc/software/hello_world2_bsp/\libhal_bsp.a(alt_icache_flush_all.o)
 .debug_info    0x00028612      0x339 c:/Users/Galileo/Projects/ELEC60011-fpga/system_template_de1_soc/software/hello_world2_bsp/\libhal_bsp.a(alt_iic.o)
 .debug_info    0x0002894b      0x218 c:/Users/Galileo/Projects/ELEC60011-fpga/system_template_de1_soc/software/hello_world2_bsp/\libhal_bsp.a(alt_iic_isr_register.o)
 .debug_info    0x00028b63      0x561 c:/Users/Galileo/Projects/ELEC60011-fpga/system_template_de1_soc/software/hello_world2_bsp/\libhal_bsp.a(alt_io_redirect.o)
 .debug_info    0x000290c4       0x22 c:/Users/Galileo/Projects/ELEC60011-fpga/system_template_de1_soc/software/hello_world2_bsp/\libhal_bsp.a(alt_irq_entry.o)
 .debug_info    0x000290e6      0x170 c:/Users/Galileo/Projects/ELEC60011-fpga/system_template_de1_soc/software/hello_world2_bsp/\libhal_bsp.a(alt_irq_handler.o)
 .debug_info    0x00029256       0x88 c:/Users/Galileo/Projects/ELEC60011-fpga/system_template_de1_soc/software/hello_world2_bsp/\libhal_bsp.a(alt_irq_vars.o)
 .debug_info    0x000292de      0x415 c:/Users/Galileo/Projects/ELEC60011-fpga/system_template_de1_soc/software/hello_world2_bsp/\libhal_bsp.a(alt_open.o)
 .debug_info    0x000296f3      0x29e c:/Users/Galileo/Projects/ELEC60011-fpga/system_template_de1_soc/software/hello_world2_bsp/\libhal_bsp.a(alt_tick.o)
 .debug_info    0x00029991       0x8d c:/Users/Galileo/Projects/ELEC60011-fpga/system_template_de1_soc/software/hello_world2_bsp/\libhal_bsp.a(altera_nios2_gen2_irq.o)
 .debug_info    0x00029a1e       0x22 c:/Users/Galileo/Projects/ELEC60011-fpga/system_template_de1_soc/software/hello_world2_bsp/\libhal_bsp.a(alt_exception_entry.o)
 .debug_info    0x00029a40      0x323 c:/Users/Galileo/Projects/ELEC60011-fpga/system_template_de1_soc/software/hello_world2_bsp/\libhal_bsp.a(alt_find_dev.o)
 .debug_info    0x00029d63      0x324 c:/Users/Galileo/Projects/ELEC60011-fpga/system_template_de1_soc/software/hello_world2_bsp/\libhal_bsp.a(alt_find_file.o)
 .debug_info    0x0002a087      0x309 c:/Users/Galileo/Projects/ELEC60011-fpga/system_template_de1_soc/software/hello_world2_bsp/\libhal_bsp.a(alt_get_fd.o)
 .debug_info    0x0002a390       0xd8 c:/Users/Galileo/Projects/ELEC60011-fpga/system_template_de1_soc/software/hello_world2_bsp/\libhal_bsp.a(alt_icache_flush.o)
 .debug_info    0x0002a468      0x1e8 c:/Users/Galileo/Projects/ELEC60011-fpga/system_template_de1_soc/software/hello_world2_bsp/\libhal_bsp.a(alt_instruction_exception_entry.o)
 .debug_info    0x0002a650      0x12b c:/intelfpga_lite/23.1std/nios2eds/bin/gnu/h-x86_64-mingw32/bin/../lib/gcc/nios2-elf/12.3.1/../../../../../H-x86_64-mingw32/nios2-elf/lib/mhw-mulx\libc.a(libc_a-memcmp.o)

.debug_abbrev   0x00000000     0xc1c4
 *(.debug_abbrev)
 .debug_abbrev  0x00000000       0x1f c:/Users/Galileo/Projects/ELEC60011-fpga/system_template_de1_soc/software/hello_world2_bsp//obj/HAL/src/crt0.o
 .debug_abbrev  0x0000001f      0x190 obj/default/hello_world.o
 .debug_abbrev  0x000001af      0x16b c:/intelfpga_lite/23.1std/nios2eds/bin/gnu/h-x86_64-mingw32/bin/../lib/gcc/nios2-elf/12.3.1/../../../../../H-x86_64-mingw32/nios2-elf/lib/mhw-mulx\libm.a(libm_a-sf_cos.o)
 .debug_abbrev  0x0000031a      0x100 c:/intelfpga_lite/23.1std/nios2eds/bin/gnu/h-x86_64-mingw32/bin/../lib/gcc/nios2-elf/12.3.1/../../../../../H-x86_64-mingw32/nios2-elf/lib/mhw-mulx\libm.a(libm_a-kf_cos.o)
 .debug_abbrev  0x0000041a      0x110 c:/intelfpga_lite/23.1std/nios2eds/bin/gnu/h-x86_64-mingw32/bin/../lib/gcc/nios2-elf/12.3.1/../../../../../H-x86_64-mingw32/nios2-elf/lib/mhw-mulx\libm.a(libm_a-kf_sin.o)
 .debug_abbrev  0x0000052a      0x18f c:/intelfpga_lite/23.1std/nios2eds/bin/gnu/h-x86_64-mingw32/bin/../lib/gcc/nios2-elf/12.3.1/../../../../../H-x86_64-mingw32/nios2-elf/lib/mhw-mulx\libm.a(libm_a-ef_rem_pio2.o)
 .debug_abbrev  0x000006b9       0xd4 c:/intelfpga_lite/23.1std/nios2eds/bin/gnu/h-x86_64-mingw32/bin/../lib/gcc/nios2-elf/12.3.1/../../../../../H-x86_64-mingw32/nios2-elf/lib/mhw-mulx\libm.a(libm_a-sf_fabs.o)
 .debug_abbrev  0x0000078d      0x16f c:/intelfpga_lite/23.1std/nios2eds/bin/gnu/h-x86_64-mingw32/bin/../lib/gcc/nios2-elf/12.3.1/../../../../../H-x86_64-mingw32/nios2-elf/lib/mhw-mulx\libm.a(libm_a-kf_rem_pio2.o)
 .debug_abbrev  0x000008fc      0x106 c:/intelfpga_lite/23.1std/nios2eds/bin/gnu/h-x86_64-mingw32/bin/../lib/gcc/nios2-elf/12.3.1/../../../../../H-x86_64-mingw32/nios2-elf/lib/mhw-mulx\libm.a(libm_a-sf_floor.o)
 .debug_abbrev  0x00000a02      0x127 c:/intelfpga_lite/23.1std/nios2eds/bin/gnu/h-x86_64-mingw32/bin/../lib/gcc/nios2-elf/12.3.1/../../../../../H-x86_64-mingw32/nios2-elf/lib/mhw-mulx\libm.a(libm_a-sf_scalbn.o)
 .debug_abbrev  0x00000b29      0x15c c:/intelfpga_lite/23.1std/nios2eds/bin/gnu/h-x86_64-mingw32/bin/../lib/gcc/nios2-elf/12.3.1/mhw-mulx\libgcc.a(addsf3.o)
 .debug_abbrev  0x00000c85      0x144 c:/intelfpga_lite/23.1std/nios2eds/bin/gnu/h-x86_64-mingw32/bin/../lib/gcc/nios2-elf/12.3.1/mhw-mulx\libgcc.a(divsf3.o)
 .debug_abbrev  0x00000dc9      0x132 c:/intelfpga_lite/23.1std/nios2eds/bin/gnu/h-x86_64-mingw32/bin/../lib/gcc/nios2-elf/12.3.1/mhw-mulx\libgcc.a(eqsf2.o)
 .debug_abbrev  0x00000efb      0x136 c:/intelfpga_lite/23.1std/nios2eds/bin/gnu/h-x86_64-mingw32/bin/../lib/gcc/nios2-elf/12.3.1/mhw-mulx\libgcc.a(gesf2.o)
 .debug_abbrev  0x00001031      0x148 c:/intelfpga_lite/23.1std/nios2eds/bin/gnu/h-x86_64-mingw32/bin/../lib/gcc/nios2-elf/12.3.1/mhw-mulx\libgcc.a(mulsf3.o)
 .debug_abbrev  0x00001179      0x15c c:/intelfpga_lite/23.1std/nios2eds/bin/gnu/h-x86_64-mingw32/bin/../lib/gcc/nios2-elf/12.3.1/mhw-mulx\libgcc.a(subsf3.o)
 .debug_abbrev  0x000012d5      0x144 c:/intelfpga_lite/23.1std/nios2eds/bin/gnu/h-x86_64-mingw32/bin/../lib/gcc/nios2-elf/12.3.1/mhw-mulx\libgcc.a(fixsfsi.o)
 .debug_abbrev  0x00001419      0x16e c:/intelfpga_lite/23.1std/nios2eds/bin/gnu/h-x86_64-mingw32/bin/../lib/gcc/nios2-elf/12.3.1/mhw-mulx\libgcc.a(floatsisf.o)
 .debug_abbrev  0x00001587       0xd3 c:/intelfpga_lite/23.1std/nios2eds/bin/gnu/h-x86_64-mingw32/bin/../lib/gcc/nios2-elf/12.3.1/mhw-mulx\libgcc.a(_clzsi2.o)
 .debug_abbrev  0x0000165a       0x70 c:/intelfpga_lite/23.1std/nios2eds/bin/gnu/h-x86_64-mingw32/bin/../lib/gcc/nios2-elf/12.3.1/mhw-mulx\libgcc.a(_clz.o)
 .debug_abbrev  0x000016ca      0x1e9 c:/intelfpga_lite/23.1std/nios2eds/bin/gnu/h-x86_64-mingw32/bin/../lib/gcc/nios2-elf/12.3.1/../../../../../H-x86_64-mingw32/nios2-elf/lib/mhw-mulx\libc.a(libc_a-rand.o)
 .debug_abbrev  0x000018b3      0x230 c:/intelfpga_lite/23.1std/nios2eds/bin/gnu/h-x86_64-mingw32/bin/../lib/gcc/nios2-elf/12.3.1/../../../../../H-x86_64-mingw32/nios2-elf/lib/mhw-mulx\libc.a(libc_a-printf.o)
 .debug_abbrev  0x00001ae3      0x282 c:/intelfpga_lite/23.1std/nios2eds/bin/gnu/h-x86_64-mingw32/bin/../lib/gcc/nios2-elf/12.3.1/../../../../../H-x86_64-mingw32/nios2-elf/lib/mhw-mulx\libc.a(libc_a-puts.o)
 .debug_abbrev  0x00001d65       0x90 c:/intelfpga_lite/23.1std/nios2eds/bin/gnu/h-x86_64-mingw32/bin/../lib/gcc/nios2-elf/12.3.1/../../../../../H-x86_64-mingw32/nios2-elf/lib/mhw-mulx\libc.a(libc_a-strlen.o)
 .debug_abbrev  0x00001df5      0x185 c:/intelfpga_lite/23.1std/nios2eds/bin/gnu/h-x86_64-mingw32/bin/../lib/gcc/nios2-elf/12.3.1/../../../../../H-x86_64-mingw32/nios2-elf/lib/mhw-mulx\libc.a(libc_a-impure.o)
 .debug_abbrev  0x00001f7a      0x460 c:/intelfpga_lite/23.1std/nios2eds/bin/gnu/h-x86_64-mingw32/bin/../lib/gcc/nios2-elf/12.3.1/../../../../../H-x86_64-mingw32/nios2-elf/lib/mhw-mulx\libc.a(libc_a-vfprintf.o)
 .debug_abbrev  0x000023da      0x46c c:/intelfpga_lite/23.1std/nios2eds/bin/gnu/h-x86_64-mingw32/bin/../lib/gcc/nios2-elf/12.3.1/../../../../../H-x86_64-mingw32/nios2-elf/lib/mhw-mulx\libc.a(libc_a-vfiprintf.o)
 .debug_abbrev  0x00002846      0x31f c:/intelfpga_lite/23.1std/nios2eds/bin/gnu/h-x86_64-mingw32/bin/../lib/gcc/nios2-elf/12.3.1/../../../../../H-x86_64-mingw32/nios2-elf/lib/mhw-mulx\libc.a(libc_a-fflush.o)
 .debug_abbrev  0x00002b65      0x446 c:/intelfpga_lite/23.1std/nios2eds/bin/gnu/h-x86_64-mingw32/bin/../lib/gcc/nios2-elf/12.3.1/../../../../../H-x86_64-mingw32/nios2-elf/lib/mhw-mulx\libc.a(libc_a-findfp.o)
 .debug_abbrev  0x00002fab      0x26a c:/intelfpga_lite/23.1std/nios2eds/bin/gnu/h-x86_64-mingw32/bin/../lib/gcc/nios2-elf/12.3.1/../../../../../H-x86_64-mingw32/nios2-elf/lib/mhw-mulx\libc.a(libc_a-fvwrite.o)
 .debug_abbrev  0x00003215      0x1d9 c:/intelfpga_lite/23.1std/nios2eds/bin/gnu/h-x86_64-mingw32/bin/../lib/gcc/nios2-elf/12.3.1/../../../../../H-x86_64-mingw32/nios2-elf/lib/mhw-mulx\libc.a(libc_a-fwalk.o)
 .debug_abbrev  0x000033ee      0x261 c:/intelfpga_lite/23.1std/nios2eds/bin/gnu/h-x86_64-mingw32/bin/../lib/gcc/nios2-elf/12.3.1/../../../../../H-x86_64-mingw32/nios2-elf/lib/mhw-mulx\libc.a(libc_a-stdio.o)
 .debug_abbrev  0x0000364f      0x21e c:/intelfpga_lite/23.1std/nios2eds/bin/gnu/h-x86_64-mingw32/bin/../lib/gcc/nios2-elf/12.3.1/../../../../../H-x86_64-mingw32/nios2-elf/lib/mhw-mulx\libc.a(libc_a-wsetup.o)
 .debug_abbrev  0x0000386d      0x2f2 c:/intelfpga_lite/23.1std/nios2eds/bin/gnu/h-x86_64-mingw32/bin/../lib/gcc/nios2-elf/12.3.1/../../../../../H-x86_64-mingw32/nios2-elf/lib/mhw-mulx\libc.a(libc_a-fputwc.o)
 .debug_abbrev  0x00003b5f       0xc7 c:/intelfpga_lite/23.1std/nios2eds/bin/gnu/h-x86_64-mingw32/bin/../lib/gcc/nios2-elf/12.3.1/../../../../../H-x86_64-mingw32/nios2-elf/lib/mhw-mulx\libc.a(libc_a-memchr.o)
 .debug_abbrev  0x00003c26       0xb9 c:/intelfpga_lite/23.1std/nios2eds/bin/gnu/h-x86_64-mingw32/bin/../lib/gcc/nios2-elf/12.3.1/../../../../../H-x86_64-mingw32/nios2-elf/lib/mhw-mulx\libc.a(libc_a-memcpy.o)
 .debug_abbrev  0x00003cdf       0xb2 c:/intelfpga_lite/23.1std/nios2eds/bin/gnu/h-x86_64-mingw32/bin/../lib/gcc/nios2-elf/12.3.1/../../../../../H-x86_64-mingw32/nios2-elf/lib/mhw-mulx\libc.a(libc_a-memmove.o)
 .debug_abbrev  0x00003d91       0xb7 c:/intelfpga_lite/23.1std/nios2eds/bin/gnu/h-x86_64-mingw32/bin/../lib/gcc/nios2-elf/12.3.1/../../../../../H-x86_64-mingw32/nios2-elf/lib/mhw-mulx\libc.a(libc_a-memset.o)
 .debug_abbrev  0x00003e48      0x2d8 c:/intelfpga_lite/23.1std/nios2eds/bin/gnu/h-x86_64-mingw32/bin/../lib/gcc/nios2-elf/12.3.1/../../../../../H-x86_64-mingw32/nios2-elf/lib/mhw-mulx\libc.a(libc_a-locale.o)
 .debug_abbrev  0x00004120      0x264 c:/intelfpga_lite/23.1std/nios2eds/bin/gnu/h-x86_64-mingw32/bin/../lib/gcc/nios2-elf/12.3.1/../../../../../H-x86_64-mingw32/nios2-elf/lib/mhw-mulx\libc.a(libc_a-localeconv.o)
 .debug_abbrev  0x00004384      0x1ec c:/intelfpga_lite/23.1std/nios2eds/bin/gnu/h-x86_64-mingw32/bin/../lib/gcc/nios2-elf/12.3.1/../../../../../H-x86_64-mingw32/nios2-elf/lib/mhw-mulx\libc.a(libc_a-closer.o)
 .debug_abbrev  0x00004570      0x22b c:/intelfpga_lite/23.1std/nios2eds/bin/gnu/h-x86_64-mingw32/bin/../lib/gcc/nios2-elf/12.3.1/../../../../../H-x86_64-mingw32/nios2-elf/lib/mhw-mulx\libc.a(libc_a-reent.o)
 .debug_abbrev  0x0000479b      0x200 c:/intelfpga_lite/23.1std/nios2eds/bin/gnu/h-x86_64-mingw32/bin/../lib/gcc/nios2-elf/12.3.1/../../../../../H-x86_64-mingw32/nios2-elf/lib/mhw-mulx\libc.a(libc_a-lseekr.o)
 .debug_abbrev  0x0000499b      0x1ec c:/intelfpga_lite/23.1std/nios2eds/bin/gnu/h-x86_64-mingw32/bin/../lib/gcc/nios2-elf/12.3.1/../../../../../H-x86_64-mingw32/nios2-elf/lib/mhw-mulx\libc.a(libc_a-readr.o)
 .debug_abbrev  0x00004b87      0x1f1 c:/intelfpga_lite/23.1std/nios2eds/bin/gnu/h-x86_64-mingw32/bin/../lib/gcc/nios2-elf/12.3.1/../../../../../H-x86_64-mingw32/nios2-elf/lib/mhw-mulx\libc.a(libc_a-writer.o)
 .debug_abbrev  0x00004d78      0x364 c:/intelfpga_lite/23.1std/nios2eds/bin/gnu/h-x86_64-mingw32/bin/../lib/gcc/nios2-elf/12.3.1/../../../../../H-x86_64-mingw32/nios2-elf/lib/mhw-mulx\libc.a(libc_a-dtoa.o)
 .debug_abbrev  0x000050dc       0xde c:/intelfpga_lite/23.1std/nios2eds/bin/gnu/h-x86_64-mingw32/bin/../lib/gcc/nios2-elf/12.3.1/../../../../../H-x86_64-mingw32/nios2-elf/lib/mhw-mulx\libc.a(libc_a-exit.o)
 .debug_abbrev  0x000051ba      0x290 c:/intelfpga_lite/23.1std/nios2eds/bin/gnu/h-x86_64-mingw32/bin/../lib/gcc/nios2-elf/12.3.1/../../../../../H-x86_64-mingw32/nios2-elf/lib/mhw-mulx\libc.a(libc_a-freer.o)
 .debug_abbrev  0x0000544a      0x2d7 c:/intelfpga_lite/23.1std/nios2eds/bin/gnu/h-x86_64-mingw32/bin/../lib/gcc/nios2-elf/12.3.1/../../../../../H-x86_64-mingw32/nios2-elf/lib/mhw-mulx\libc.a(libc_a-mallocr.o)
 .debug_abbrev  0x00005721      0x265 c:/intelfpga_lite/23.1std/nios2eds/bin/gnu/h-x86_64-mingw32/bin/../lib/gcc/nios2-elf/12.3.1/../../../../../H-x86_64-mingw32/nios2-elf/lib/mhw-mulx\libc.a(libc_a-mbtowc_r.o)
 .debug_abbrev  0x00005986      0x501 c:/intelfpga_lite/23.1std/nios2eds/bin/gnu/h-x86_64-mingw32/bin/../lib/gcc/nios2-elf/12.3.1/../../../../../H-x86_64-mingw32/nios2-elf/lib/mhw-mulx\libc.a(libc_a-mprec.o)
 .debug_abbrev  0x00005e87      0x26f c:/intelfpga_lite/23.1std/nios2eds/bin/gnu/h-x86_64-mingw32/bin/../lib/gcc/nios2-elf/12.3.1/../../../../../H-x86_64-mingw32/nios2-elf/lib/mhw-mulx\libc.a(libc_a-reallocr.o)
 .debug_abbrev  0x000060f6      0x251 c:/intelfpga_lite/23.1std/nios2eds/bin/gnu/h-x86_64-mingw32/bin/../lib/gcc/nios2-elf/12.3.1/../../../../../H-x86_64-mingw32/nios2-elf/lib/mhw-mulx\libc.a(libc_a-wctomb_r.o)
 .debug_abbrev  0x00006347      0x24c c:/intelfpga_lite/23.1std/nios2eds/bin/gnu/h-x86_64-mingw32/bin/../lib/gcc/nios2-elf/12.3.1/../../../../../H-x86_64-mingw32/nios2-elf/lib/mhw-mulx\libc.a(libc_a-wcrtomb.o)
 .debug_abbrev  0x00006593       0x73 c:/intelfpga_lite/23.1std/nios2eds/bin/gnu/h-x86_64-mingw32/bin/../lib/gcc/nios2-elf/12.3.1/../../../../../H-x86_64-mingw32/nios2-elf/lib/mhw-mulx\libc.a(libc_a-ctype_.o)
 .debug_abbrev  0x00006606      0x2e8 c:/intelfpga_lite/23.1std/nios2eds/bin/gnu/h-x86_64-mingw32/bin/../lib/gcc/nios2-elf/12.3.1/../../../../../H-x86_64-mingw32/nios2-elf/lib/mhw-mulx\libc.a(libc_a-fclose.o)
 .debug_abbrev  0x000068ee      0x2c1 c:/intelfpga_lite/23.1std/nios2eds/bin/gnu/h-x86_64-mingw32/bin/../lib/gcc/nios2-elf/12.3.1/../../../../../H-x86_64-mingw32/nios2-elf/lib/mhw-mulx\libc.a(libc_a-makebuf.o)
 .debug_abbrev  0x00006baf      0x272 c:/intelfpga_lite/23.1std/nios2eds/bin/gnu/h-x86_64-mingw32/bin/../lib/gcc/nios2-elf/12.3.1/../../../../../H-x86_64-mingw32/nios2-elf/lib/mhw-mulx\libc.a(libc_a-wbuf.o)
 .debug_abbrev  0x00006e21       0x83 c:/intelfpga_lite/23.1std/nios2eds/bin/gnu/h-x86_64-mingw32/bin/../lib/gcc/nios2-elf/12.3.1/../../../../../H-x86_64-mingw32/nios2-elf/lib/mhw-mulx\libc.a(libc_a-strcmp.o)
 .debug_abbrev  0x00006ea4      0x1ff c:/intelfpga_lite/23.1std/nios2eds/bin/gnu/h-x86_64-mingw32/bin/../lib/gcc/nios2-elf/12.3.1/../../../../../H-x86_64-mingw32/nios2-elf/lib/mhw-mulx\libc.a(libc_a-fstatr.o)
 .debug_abbrev  0x000070a3      0x1ec c:/intelfpga_lite/23.1std/nios2eds/bin/gnu/h-x86_64-mingw32/bin/../lib/gcc/nios2-elf/12.3.1/../../../../../H-x86_64-mingw32/nios2-elf/lib/mhw-mulx\libc.a(libc_a-isattyr.o)
 .debug_abbrev  0x0000728f      0x202 c:/intelfpga_lite/23.1std/nios2eds/bin/gnu/h-x86_64-mingw32/bin/../lib/gcc/nios2-elf/12.3.1/../../../../../H-x86_64-mingw32/nios2-elf/lib/mhw-mulx\libc.a(libc_a-sbrkr.o)
 .debug_abbrev  0x00007491      0x16a c:/intelfpga_lite/23.1std/nios2eds/bin/gnu/h-x86_64-mingw32/bin/../lib/gcc/nios2-elf/12.3.1/../../../../../H-x86_64-mingw32/nios2-elf/lib/mhw-mulx\libc.a(libc_a-__call_atexit.o)
 .debug_abbrev  0x000075fb      0x226 c:/intelfpga_lite/23.1std/nios2eds/bin/gnu/h-x86_64-mingw32/bin/../lib/gcc/nios2-elf/12.3.1/../../../../../H-x86_64-mingw32/nios2-elf/lib/mhw-mulx\libc.a(libc_a-assert.o)
 .debug_abbrev  0x00007821      0x25b c:/intelfpga_lite/23.1std/nios2eds/bin/gnu/h-x86_64-mingw32/bin/../lib/gcc/nios2-elf/12.3.1/../../../../../H-x86_64-mingw32/nios2-elf/lib/mhw-mulx\libc.a(libc_a-callocr.o)
 .debug_abbrev  0x00007a7c      0x218 c:/intelfpga_lite/23.1std/nios2eds/bin/gnu/h-x86_64-mingw32/bin/../lib/gcc/nios2-elf/12.3.1/../../../../../H-x86_64-mingw32/nios2-elf/lib/mhw-mulx\libc.a(libc_a-fiprintf.o)
 .debug_abbrev  0x00007c94      0x1fe c:/intelfpga_lite/23.1std/nios2eds/bin/gnu/h-x86_64-mingw32/bin/../lib/gcc/nios2-elf/12.3.1/../../../../../H-x86_64-mingw32/nios2-elf/lib/mhw-mulx\libc.a(libc_a-vfiprintfr_1.o)
 .debug_abbrev  0x00007e92      0x19a c:/intelfpga_lite/23.1std/nios2eds/bin/gnu/h-x86_64-mingw32/bin/../lib/gcc/nios2-elf/12.3.1/../../../../../H-x86_64-mingw32/nios2-elf/lib/mhw-mulx\libc.a(libc_a-errno.o)
 .debug_abbrev  0x0000802c       0x99 c:/intelfpga_lite/23.1std/nios2eds/bin/gnu/h-x86_64-mingw32/bin/../lib/gcc/nios2-elf/12.3.1/../../../../../H-x86_64-mingw32/nios2-elf/lib/mhw-mulx\libc.a(libc_a-abort.o)
 .debug_abbrev  0x000080c5      0x313 c:/intelfpga_lite/23.1std/nios2eds/bin/gnu/h-x86_64-mingw32/bin/../lib/gcc/nios2-elf/12.3.1/../../../../../H-x86_64-mingw32/nios2-elf/lib/mhw-mulx\libc.a(libc_a-signal.o)
 .debug_abbrev  0x000083d8      0x239 c:/intelfpga_lite/23.1std/nios2eds/bin/gnu/h-x86_64-mingw32/bin/../lib/gcc/nios2-elf/12.3.1/../../../../../H-x86_64-mingw32/nios2-elf/lib/mhw-mulx\libc.a(libc_a-signalr.o)
 .debug_abbrev  0x00008611      0x1bb c:/intelfpga_lite/23.1std/nios2eds/bin/gnu/h-x86_64-mingw32/bin/../lib/gcc/nios2-elf/12.3.1/mhw-mulx\libgcc.a(_udivdi3.o)
 .debug_abbrev  0x000087cc      0x1de c:/intelfpga_lite/23.1std/nios2eds/bin/gnu/h-x86_64-mingw32/bin/../lib/gcc/nios2-elf/12.3.1/mhw-mulx\libgcc.a(_umoddi3.o)
 .debug_abbrev  0x000089aa      0x10c c:/intelfpga_lite/23.1std/nios2eds/bin/gnu/h-x86_64-mingw32/bin/../lib/gcc/nios2-elf/12.3.1/mhw-mulx\libgcc.a(lib2-divmod.o)
 .debug_abbrev  0x00008ab6      0x16e c:/intelfpga_lite/23.1std/nios2eds/bin/gnu/h-x86_64-mingw32/bin/../lib/gcc/nios2-elf/12.3.1/mhw-mulx\libgcc.a(adddf3.o)
 .debug_abbrev  0x00008c24      0x16c c:/intelfpga_lite/23.1std/nios2eds/bin/gnu/h-x86_64-mingw32/bin/../lib/gcc/nios2-elf/12.3.1/mhw-mulx\libgcc.a(divdf3.o)
 .debug_abbrev  0x00008d90      0x154 c:/intelfpga_lite/23.1std/nios2eds/bin/gnu/h-x86_64-mingw32/bin/../lib/gcc/nios2-elf/12.3.1/mhw-mulx\libgcc.a(eqdf2.o)
 .debug_abbrev  0x00008ee4      0x145 c:/intelfpga_lite/23.1std/nios2eds/bin/gnu/h-x86_64-mingw32/bin/../lib/gcc/nios2-elf/12.3.1/mhw-mulx\libgcc.a(gedf2.o)
 .debug_abbrev  0x00009029      0x145 c:/intelfpga_lite/23.1std/nios2eds/bin/gnu/h-x86_64-mingw32/bin/../lib/gcc/nios2-elf/12.3.1/mhw-mulx\libgcc.a(ledf2.o)
 .debug_abbrev  0x0000916e      0x17e c:/intelfpga_lite/23.1std/nios2eds/bin/gnu/h-x86_64-mingw32/bin/../lib/gcc/nios2-elf/12.3.1/mhw-mulx\libgcc.a(muldf3.o)
 .debug_abbrev  0x000092ec      0x16e c:/intelfpga_lite/23.1std/nios2eds/bin/gnu/h-x86_64-mingw32/bin/../lib/gcc/nios2-elf/12.3.1/mhw-mulx\libgcc.a(subdf3.o)
 .debug_abbrev  0x0000945a      0x12f c:/intelfpga_lite/23.1std/nios2eds/bin/gnu/h-x86_64-mingw32/bin/../lib/gcc/nios2-elf/12.3.1/mhw-mulx\libgcc.a(unorddf2.o)
 .debug_abbrev  0x00009589      0x144 c:/intelfpga_lite/23.1std/nios2eds/bin/gnu/h-x86_64-mingw32/bin/../lib/gcc/nios2-elf/12.3.1/mhw-mulx\libgcc.a(fixdfsi.o)
 .debug_abbrev  0x000096cd      0x16c c:/intelfpga_lite/23.1std/nios2eds/bin/gnu/h-x86_64-mingw32/bin/../lib/gcc/nios2-elf/12.3.1/mhw-mulx\libgcc.a(floatsidf.o)
 .debug_abbrev  0x00009839      0x16b c:/intelfpga_lite/23.1std/nios2eds/bin/gnu/h-x86_64-mingw32/bin/../lib/gcc/nios2-elf/12.3.1/mhw-mulx\libgcc.a(floatunsidf.o)
 .debug_abbrev  0x000099a4      0x147 c:/Users/Galileo/Projects/ELEC60011-fpga/system_template_de1_soc/software/hello_world2_bsp/\libhal_bsp.a(alt_close.o)
 .debug_abbrev  0x00009aeb      0x11b c:/Users/Galileo/Projects/ELEC60011-fpga/system_template_de1_soc/software/hello_world2_bsp/\libhal_bsp.a(alt_dev.o)
 .debug_abbrev  0x00009c06       0x70 c:/Users/Galileo/Projects/ELEC60011-fpga/system_template_de1_soc/software/hello_world2_bsp/\libhal_bsp.a(alt_errno.o)
 .debug_abbrev  0x00009c76       0xab c:/Users/Galileo/Projects/ELEC60011-fpga/system_template_de1_soc/software/hello_world2_bsp/\libhal_bsp.a(alt_exit.o)
 .debug_abbrev  0x00009d21      0x132 c:/Users/Galileo/Projects/ELEC60011-fpga/system_template_de1_soc/software/hello_world2_bsp/\libhal_bsp.a(alt_fstat.o)
 .debug_abbrev  0x00009e53       0x3a c:/Users/Galileo/Projects/ELEC60011-fpga/system_template_de1_soc/software/hello_world2_bsp/\libhal_bsp.a(alt_getpid.o)
 .debug_abbrev  0x00009e8d      0x149 c:/Users/Galileo/Projects/ELEC60011-fpga/system_template_de1_soc/software/hello_world2_bsp/\libhal_bsp.a(alt_isatty.o)
 .debug_abbrev  0x00009fd6       0xca c:/Users/Galileo/Projects/ELEC60011-fpga/system_template_de1_soc/software/hello_world2_bsp/\libhal_bsp.a(alt_kill.o)
 .debug_abbrev  0x0000a0a0       0xc2 c:/Users/Galileo/Projects/ELEC60011-fpga/system_template_de1_soc/software/hello_world2_bsp/\libhal_bsp.a(alt_load.o)
 .debug_abbrev  0x0000a162      0x135 c:/Users/Galileo/Projects/ELEC60011-fpga/system_template_de1_soc/software/hello_world2_bsp/\libhal_bsp.a(alt_lseek.o)
 .debug_abbrev  0x0000a297       0xf3 c:/Users/Galileo/Projects/ELEC60011-fpga/system_template_de1_soc/software/hello_world2_bsp/\libhal_bsp.a(alt_main.o)
 .debug_abbrev  0x0000a38a      0x1b2 c:/Users/Galileo/Projects/ELEC60011-fpga/system_template_de1_soc/software/hello_world2_bsp/\libhal_bsp.a(alt_malloc_lock.o)
 .debug_abbrev  0x0000a53c      0x144 c:/Users/Galileo/Projects/ELEC60011-fpga/system_template_de1_soc/software/hello_world2_bsp/\libhal_bsp.a(alt_read.o)
 .debug_abbrev  0x0000a680       0xea c:/Users/Galileo/Projects/ELEC60011-fpga/system_template_de1_soc/software/hello_world2_bsp/\libhal_bsp.a(alt_release_fd.o)
 .debug_abbrev  0x0000a76a      0x120 c:/Users/Galileo/Projects/ELEC60011-fpga/system_template_de1_soc/software/hello_world2_bsp/\libhal_bsp.a(alt_sbrk.o)
 .debug_abbrev  0x0000a88a      0x10a c:/Users/Galileo/Projects/ELEC60011-fpga/system_template_de1_soc/software/hello_world2_bsp/\libhal_bsp.a(alt_times.o)
 .debug_abbrev  0x0000a994      0x149 c:/Users/Galileo/Projects/ELEC60011-fpga/system_template_de1_soc/software/hello_world2_bsp/\libhal_bsp.a(alt_write.o)
 .debug_abbrev  0x0000aadd      0x1ab c:/Users/Galileo/Projects/ELEC60011-fpga/system_template_de1_soc/software/hello_world2_bsp/\libhal_bsp.a(alt_sys_init.o)
 .debug_abbrev  0x0000ac88      0x128 c:/Users/Galileo/Projects/ELEC60011-fpga/system_template_de1_soc/software/hello_world2_bsp/\libhal_bsp.a(altera_avalon_jtag_uart_fd.o)
 .debug_abbrev  0x0000adb0       0xd2 c:/Users/Galileo/Projects/ELEC60011-fpga/system_template_de1_soc/software/hello_world2_bsp/\libhal_bsp.a(altera_avalon_jtag_uart_read.o)
 .debug_abbrev  0x0000ae82       0xd0 c:/Users/Galileo/Projects/ELEC60011-fpga/system_template_de1_soc/software/hello_world2_bsp/\libhal_bsp.a(altera_avalon_jtag_uart_write.o)
 .debug_abbrev  0x0000af52      0x18f c:/Users/Galileo/Projects/ELEC60011-fpga/system_template_de1_soc/software/hello_world2_bsp/\libhal_bsp.a(altera_avalon_timer_sc.o)
 .debug_abbrev  0x0000b0e1       0x5d c:/Users/Galileo/Projects/ELEC60011-fpga/system_template_de1_soc/software/hello_world2_bsp/\libhal_bsp.a(alt_dcache_flush_all.o)
 .debug_abbrev  0x0000b13e      0x12b c:/Users/Galileo/Projects/ELEC60011-fpga/system_template_de1_soc/software/hello_world2_bsp/\libhal_bsp.a(alt_dev_llist_insert.o)
 .debug_abbrev  0x0000b269       0x75 c:/Users/Galileo/Projects/ELEC60011-fpga/system_template_de1_soc/software/hello_world2_bsp/\libhal_bsp.a(alt_icache_flush_all.o)
 .debug_abbrev  0x0000b2de      0x1a9 c:/Users/Galileo/Projects/ELEC60011-fpga/system_template_de1_soc/software/hello_world2_bsp/\libhal_bsp.a(alt_iic.o)
 .debug_abbrev  0x0000b487      0x199 c:/Users/Galileo/Projects/ELEC60011-fpga/system_template_de1_soc/software/hello_world2_bsp/\libhal_bsp.a(alt_iic_isr_register.o)
 .debug_abbrev  0x0000b620      0x157 c:/Users/Galileo/Projects/ELEC60011-fpga/system_template_de1_soc/software/hello_world2_bsp/\libhal_bsp.a(alt_io_redirect.o)
 .debug_abbrev  0x0000b777       0x12 c:/Users/Galileo/Projects/ELEC60011-fpga/system_template_de1_soc/software/hello_world2_bsp/\libhal_bsp.a(alt_irq_entry.o)
 .debug_abbrev  0x0000b789      0x12f c:/Users/Galileo/Projects/ELEC60011-fpga/system_template_de1_soc/software/hello_world2_bsp/\libhal_bsp.a(alt_irq_handler.o)
 .debug_abbrev  0x0000b8b8       0x46 c:/Users/Galileo/Projects/ELEC60011-fpga/system_template_de1_soc/software/hello_world2_bsp/\libhal_bsp.a(alt_irq_vars.o)
 .debug_abbrev  0x0000b8fe      0x191 c:/Users/Galileo/Projects/ELEC60011-fpga/system_template_de1_soc/software/hello_world2_bsp/\libhal_bsp.a(alt_open.o)
 .debug_abbrev  0x0000ba8f      0x17f c:/Users/Galileo/Projects/ELEC60011-fpga/system_template_de1_soc/software/hello_world2_bsp/\libhal_bsp.a(alt_tick.o)
 .debug_abbrev  0x0000bc0e       0x43 c:/Users/Galileo/Projects/ELEC60011-fpga/system_template_de1_soc/software/hello_world2_bsp/\libhal_bsp.a(altera_nios2_gen2_irq.o)
 .debug_abbrev  0x0000bc51       0x12 c:/Users/Galileo/Projects/ELEC60011-fpga/system_template_de1_soc/software/hello_world2_bsp/\libhal_bsp.a(alt_exception_entry.o)
 .debug_abbrev  0x0000bc63      0x10c c:/Users/Galileo/Projects/ELEC60011-fpga/system_template_de1_soc/software/hello_world2_bsp/\libhal_bsp.a(alt_find_dev.o)
 .debug_abbrev  0x0000bd6f      0x11d c:/Users/Galileo/Projects/ELEC60011-fpga/system_template_de1_soc/software/hello_world2_bsp/\libhal_bsp.a(alt_find_file.o)
 .debug_abbrev  0x0000be8c      0x124 c:/Users/Galileo/Projects/ELEC60011-fpga/system_template_de1_soc/software/hello_world2_bsp/\libhal_bsp.a(alt_get_fd.o)
 .debug_abbrev  0x0000bfb0       0x97 c:/Users/Galileo/Projects/ELEC60011-fpga/system_template_de1_soc/software/hello_world2_bsp/\libhal_bsp.a(alt_icache_flush.o)
 .debug_abbrev  0x0000c047       0xed c:/Users/Galileo/Projects/ELEC60011-fpga/system_template_de1_soc/software/hello_world2_bsp/\libhal_bsp.a(alt_instruction_exception_entry.o)
 .debug_abbrev  0x0000c134       0x90 c:/intelfpga_lite/23.1std/nios2eds/bin/gnu/h-x86_64-mingw32/bin/../lib/gcc/nios2-elf/12.3.1/../../../../../H-x86_64-mingw32/nios2-elf/lib/mhw-mulx\libc.a(libc_a-memcmp.o)

.debug_line     0x00000000    0x139a3
 *(.debug_line)
 .debug_line    0x00000000       0x72 c:/Users/Galileo/Projects/ELEC60011-fpga/system_template_de1_soc/software/hello_world2_bsp//obj/HAL/src/crt0.o
 .debug_line    0x00000072      0x1a3 obj/default/hello_world.o
 .debug_line    0x00000215       0xec c:/intelfpga_lite/23.1std/nios2eds/bin/gnu/h-x86_64-mingw32/bin/../lib/gcc/nios2-elf/12.3.1/../../../../../H-x86_64-mingw32/nios2-elf/lib/mhw-mulx\libm.a(libm_a-sf_cos.o)
 .debug_line    0x00000301      0x11f c:/intelfpga_lite/23.1std/nios2eds/bin/gnu/h-x86_64-mingw32/bin/../lib/gcc/nios2-elf/12.3.1/../../../../../H-x86_64-mingw32/nios2-elf/lib/mhw-mulx\libm.a(libm_a-kf_cos.o)
 .debug_line    0x00000420      0x11f c:/intelfpga_lite/23.1std/nios2eds/bin/gnu/h-x86_64-mingw32/bin/../lib/gcc/nios2-elf/12.3.1/../../../../../H-x86_64-mingw32/nios2-elf/lib/mhw-mulx\libm.a(libm_a-kf_sin.o)
 .debug_line    0x0000053f      0x42c c:/intelfpga_lite/23.1std/nios2eds/bin/gnu/h-x86_64-mingw32/bin/../lib/gcc/nios2-elf/12.3.1/../../../../../H-x86_64-mingw32/nios2-elf/lib/mhw-mulx\libm.a(libm_a-ef_rem_pio2.o)
 .debug_line    0x0000096b       0x81 c:/intelfpga_lite/23.1std/nios2eds/bin/gnu/h-x86_64-mingw32/bin/../lib/gcc/nios2-elf/12.3.1/../../../../../H-x86_64-mingw32/nios2-elf/lib/mhw-mulx\libm.a(libm_a-sf_fabs.o)
 .debug_line    0x000009ec      0x9b3 c:/intelfpga_lite/23.1std/nios2eds/bin/gnu/h-x86_64-mingw32/bin/../lib/gcc/nios2-elf/12.3.1/../../../../../H-x86_64-mingw32/nios2-elf/lib/mhw-mulx\libm.a(libm_a-kf_rem_pio2.o)
 .debug_line    0x0000139f      0x148 c:/intelfpga_lite/23.1std/nios2eds/bin/gnu/h-x86_64-mingw32/bin/../lib/gcc/nios2-elf/12.3.1/../../../../../H-x86_64-mingw32/nios2-elf/lib/mhw-mulx\libm.a(libm_a-sf_floor.o)
 .debug_line    0x000014e7      0x168 c:/intelfpga_lite/23.1std/nios2eds/bin/gnu/h-x86_64-mingw32/bin/../lib/gcc/nios2-elf/12.3.1/../../../../../H-x86_64-mingw32/nios2-elf/lib/mhw-mulx\libm.a(libm_a-sf_scalbn.o)
 .debug_line    0x0000164f      0x6bf c:/intelfpga_lite/23.1std/nios2eds/bin/gnu/h-x86_64-mingw32/bin/../lib/gcc/nios2-elf/12.3.1/mhw-mulx\libgcc.a(addsf3.o)
 .debug_line    0x00001d0e      0x49b c:/intelfpga_lite/23.1std/nios2eds/bin/gnu/h-x86_64-mingw32/bin/../lib/gcc/nios2-elf/12.3.1/mhw-mulx\libgcc.a(divsf3.o)
 .debug_line    0x000021a9       0xf7 c:/intelfpga_lite/23.1std/nios2eds/bin/gnu/h-x86_64-mingw32/bin/../lib/gcc/nios2-elf/12.3.1/mhw-mulx\libgcc.a(eqsf2.o)
 .debug_line    0x000022a0      0x15d c:/intelfpga_lite/23.1std/nios2eds/bin/gnu/h-x86_64-mingw32/bin/../lib/gcc/nios2-elf/12.3.1/mhw-mulx\libgcc.a(gesf2.o)
 .debug_line    0x000023fd      0x508 c:/intelfpga_lite/23.1std/nios2eds/bin/gnu/h-x86_64-mingw32/bin/../lib/gcc/nios2-elf/12.3.1/mhw-mulx\libgcc.a(mulsf3.o)
 .debug_line    0x00002905      0x710 c:/intelfpga_lite/23.1std/nios2eds/bin/gnu/h-x86_64-mingw32/bin/../lib/gcc/nios2-elf/12.3.1/mhw-mulx\libgcc.a(subsf3.o)
 .debug_line    0x00003015      0x102 c:/intelfpga_lite/23.1std/nios2eds/bin/gnu/h-x86_64-mingw32/bin/../lib/gcc/nios2-elf/12.3.1/mhw-mulx\libgcc.a(fixsfsi.o)
 .debug_line    0x00003117      0x203 c:/intelfpga_lite/23.1std/nios2eds/bin/gnu/h-x86_64-mingw32/bin/../lib/gcc/nios2-elf/12.3.1/mhw-mulx\libgcc.a(floatsisf.o)
 .debug_line    0x0000331a       0x9a c:/intelfpga_lite/23.1std/nios2eds/bin/gnu/h-x86_64-mingw32/bin/../lib/gcc/nios2-elf/12.3.1/mhw-mulx\libgcc.a(_clzsi2.o)
 .debug_line    0x000033b4       0x3f c:/intelfpga_lite/23.1std/nios2eds/bin/gnu/h-x86_64-mingw32/bin/../lib/gcc/nios2-elf/12.3.1/mhw-mulx\libgcc.a(_clz.o)
 .debug_line    0x000033f3       0xc7 c:/intelfpga_lite/23.1std/nios2eds/bin/gnu/h-x86_64-mingw32/bin/../lib/gcc/nios2-elf/12.3.1/../../../../../H-x86_64-mingw32/nios2-elf/lib/mhw-mulx\libc.a(libc_a-rand.o)
 .debug_line    0x000034ba       0xd1 c:/intelfpga_lite/23.1std/nios2eds/bin/gnu/h-x86_64-mingw32/bin/../lib/gcc/nios2-elf/12.3.1/../../../../../H-x86_64-mingw32/nios2-elf/lib/mhw-mulx\libc.a(libc_a-printf.o)
 .debug_line    0x0000358b      0x180 c:/intelfpga_lite/23.1std/nios2eds/bin/gnu/h-x86_64-mingw32/bin/../lib/gcc/nios2-elf/12.3.1/../../../../../H-x86_64-mingw32/nios2-elf/lib/mhw-mulx\libc.a(libc_a-puts.o)
 .debug_line    0x0000370b       0xc6 c:/intelfpga_lite/23.1std/nios2eds/bin/gnu/h-x86_64-mingw32/bin/../lib/gcc/nios2-elf/12.3.1/../../../../../H-x86_64-mingw32/nios2-elf/lib/mhw-mulx\libc.a(libc_a-strlen.o)
 .debug_line    0x000037d1       0x51 c:/intelfpga_lite/23.1std/nios2eds/bin/gnu/h-x86_64-mingw32/bin/../lib/gcc/nios2-elf/12.3.1/../../../../../H-x86_64-mingw32/nios2-elf/lib/mhw-mulx\libc.a(libc_a-impure.o)
 .debug_line    0x00003822     0x19f3 c:/intelfpga_lite/23.1std/nios2eds/bin/gnu/h-x86_64-mingw32/bin/../lib/gcc/nios2-elf/12.3.1/../../../../../H-x86_64-mingw32/nios2-elf/lib/mhw-mulx\libc.a(libc_a-vfprintf.o)
 .debug_line    0x00005215     0x131d c:/intelfpga_lite/23.1std/nios2eds/bin/gnu/h-x86_64-mingw32/bin/../lib/gcc/nios2-elf/12.3.1/../../../../../H-x86_64-mingw32/nios2-elf/lib/mhw-mulx\libc.a(libc_a-vfiprintf.o)
 .debug_line    0x00006532      0x3a8 c:/intelfpga_lite/23.1std/nios2eds/bin/gnu/h-x86_64-mingw32/bin/../lib/gcc/nios2-elf/12.3.1/../../../../../H-x86_64-mingw32/nios2-elf/lib/mhw-mulx\libc.a(libc_a-fflush.o)
 .debug_line    0x000068da      0x53e c:/intelfpga_lite/23.1std/nios2eds/bin/gnu/h-x86_64-mingw32/bin/../lib/gcc/nios2-elf/12.3.1/../../../../../H-x86_64-mingw32/nios2-elf/lib/mhw-mulx\libc.a(libc_a-findfp.o)
 .debug_line    0x00006e18      0x545 c:/intelfpga_lite/23.1std/nios2eds/bin/gnu/h-x86_64-mingw32/bin/../lib/gcc/nios2-elf/12.3.1/../../../../../H-x86_64-mingw32/nios2-elf/lib/mhw-mulx\libc.a(libc_a-fvwrite.o)
 .debug_line    0x0000735d      0x103 c:/intelfpga_lite/23.1std/nios2eds/bin/gnu/h-x86_64-mingw32/bin/../lib/gcc/nios2-elf/12.3.1/../../../../../H-x86_64-mingw32/nios2-elf/lib/mhw-mulx\libc.a(libc_a-fwalk.o)
 .debug_line    0x00007460      0x1ac c:/intelfpga_lite/23.1std/nios2eds/bin/gnu/h-x86_64-mingw32/bin/../lib/gcc/nios2-elf/12.3.1/../../../../../H-x86_64-mingw32/nios2-elf/lib/mhw-mulx\libc.a(libc_a-stdio.o)
 .debug_line    0x0000760c      0x1fa c:/intelfpga_lite/23.1std/nios2eds/bin/gnu/h-x86_64-mingw32/bin/../lib/gcc/nios2-elf/12.3.1/../../../../../H-x86_64-mingw32/nios2-elf/lib/mhw-mulx\libc.a(libc_a-wsetup.o)
 .debug_line    0x00007806      0x271 c:/intelfpga_lite/23.1std/nios2eds/bin/gnu/h-x86_64-mingw32/bin/../lib/gcc/nios2-elf/12.3.1/../../../../../H-x86_64-mingw32/nios2-elf/lib/mhw-mulx\libc.a(libc_a-fputwc.o)
 .debug_line    0x00007a77      0x102 c:/intelfpga_lite/23.1std/nios2eds/bin/gnu/h-x86_64-mingw32/bin/../lib/gcc/nios2-elf/12.3.1/../../../../../H-x86_64-mingw32/nios2-elf/lib/mhw-mulx\libc.a(libc_a-memchr.o)
 .debug_line    0x00007b79      0x131 c:/intelfpga_lite/23.1std/nios2eds/bin/gnu/h-x86_64-mingw32/bin/../lib/gcc/nios2-elf/12.3.1/../../../../../H-x86_64-mingw32/nios2-elf/lib/mhw-mulx\libc.a(libc_a-memcpy.o)
 .debug_line    0x00007caa      0x169 c:/intelfpga_lite/23.1std/nios2eds/bin/gnu/h-x86_64-mingw32/bin/../lib/gcc/nios2-elf/12.3.1/../../../../../H-x86_64-mingw32/nios2-elf/lib/mhw-mulx\libc.a(libc_a-memmove.o)
 .debug_line    0x00007e13      0x14f c:/intelfpga_lite/23.1std/nios2eds/bin/gnu/h-x86_64-mingw32/bin/../lib/gcc/nios2-elf/12.3.1/../../../../../H-x86_64-mingw32/nios2-elf/lib/mhw-mulx\libc.a(libc_a-memset.o)
 .debug_line    0x00007f62      0x175 c:/intelfpga_lite/23.1std/nios2eds/bin/gnu/h-x86_64-mingw32/bin/../lib/gcc/nios2-elf/12.3.1/../../../../../H-x86_64-mingw32/nios2-elf/lib/mhw-mulx\libc.a(libc_a-locale.o)
 .debug_line    0x000080d7       0xb4 c:/intelfpga_lite/23.1std/nios2eds/bin/gnu/h-x86_64-mingw32/bin/../lib/gcc/nios2-elf/12.3.1/../../../../../H-x86_64-mingw32/nios2-elf/lib/mhw-mulx\libc.a(libc_a-localeconv.o)
 .debug_line    0x0000818b       0xba c:/intelfpga_lite/23.1std/nios2eds/bin/gnu/h-x86_64-mingw32/bin/../lib/gcc/nios2-elf/12.3.1/../../../../../H-x86_64-mingw32/nios2-elf/lib/mhw-mulx\libc.a(libc_a-closer.o)
 .debug_line    0x00008245      0x101 c:/intelfpga_lite/23.1std/nios2eds/bin/gnu/h-x86_64-mingw32/bin/../lib/gcc/nios2-elf/12.3.1/../../../../../H-x86_64-mingw32/nios2-elf/lib/mhw-mulx\libc.a(libc_a-reent.o)
 .debug_line    0x00008346       0xc0 c:/intelfpga_lite/23.1std/nios2eds/bin/gnu/h-x86_64-mingw32/bin/../lib/gcc/nios2-elf/12.3.1/../../../../../H-x86_64-mingw32/nios2-elf/lib/mhw-mulx\libc.a(libc_a-lseekr.o)
 .debug_line    0x00008406       0xbb c:/intelfpga_lite/23.1std/nios2eds/bin/gnu/h-x86_64-mingw32/bin/../lib/gcc/nios2-elf/12.3.1/../../../../../H-x86_64-mingw32/nios2-elf/lib/mhw-mulx\libc.a(libc_a-readr.o)
 .debug_line    0x000084c1       0xbb c:/intelfpga_lite/23.1std/nios2eds/bin/gnu/h-x86_64-mingw32/bin/../lib/gcc/nios2-elf/12.3.1/../../../../../H-x86_64-mingw32/nios2-elf/lib/mhw-mulx\libc.a(libc_a-writer.o)
 .debug_line    0x0000857c     0x148f c:/intelfpga_lite/23.1std/nios2eds/bin/gnu/h-x86_64-mingw32/bin/../lib/gcc/nios2-elf/12.3.1/../../../../../H-x86_64-mingw32/nios2-elf/lib/mhw-mulx\libc.a(libc_a-dtoa.o)
 .debug_line    0x00009a0b       0x93 c:/intelfpga_lite/23.1std/nios2eds/bin/gnu/h-x86_64-mingw32/bin/../lib/gcc/nios2-elf/12.3.1/../../../../../H-x86_64-mingw32/nios2-elf/lib/mhw-mulx\libc.a(libc_a-exit.o)
 .debug_line    0x00009a9e      0x454 c:/intelfpga_lite/23.1std/nios2eds/bin/gnu/h-x86_64-mingw32/bin/../lib/gcc/nios2-elf/12.3.1/../../../../../H-x86_64-mingw32/nios2-elf/lib/mhw-mulx\libc.a(libc_a-freer.o)
 .debug_line    0x00009ef2      0x7b0 c:/intelfpga_lite/23.1std/nios2eds/bin/gnu/h-x86_64-mingw32/bin/../lib/gcc/nios2-elf/12.3.1/../../../../../H-x86_64-mingw32/nios2-elf/lib/mhw-mulx\libc.a(libc_a-mallocr.o)
 .debug_line    0x0000a6a2       0xed c:/intelfpga_lite/23.1std/nios2eds/bin/gnu/h-x86_64-mingw32/bin/../lib/gcc/nios2-elf/12.3.1/../../../../../H-x86_64-mingw32/nios2-elf/lib/mhw-mulx\libc.a(libc_a-mbtowc_r.o)
 .debug_line    0x0000a78f     0x1531 c:/intelfpga_lite/23.1std/nios2eds/bin/gnu/h-x86_64-mingw32/bin/../lib/gcc/nios2-elf/12.3.1/../../../../../H-x86_64-mingw32/nios2-elf/lib/mhw-mulx\libc.a(libc_a-mprec.o)
 .debug_line    0x0000bcc0      0x6f2 c:/intelfpga_lite/23.1std/nios2eds/bin/gnu/h-x86_64-mingw32/bin/../lib/gcc/nios2-elf/12.3.1/../../../../../H-x86_64-mingw32/nios2-elf/lib/mhw-mulx\libc.a(libc_a-reallocr.o)
 .debug_line    0x0000c3b2       0xda c:/intelfpga_lite/23.1std/nios2eds/bin/gnu/h-x86_64-mingw32/bin/../lib/gcc/nios2-elf/12.3.1/../../../../../H-x86_64-mingw32/nios2-elf/lib/mhw-mulx\libc.a(libc_a-wctomb_r.o)
 .debug_line    0x0000c48c      0x16f c:/intelfpga_lite/23.1std/nios2eds/bin/gnu/h-x86_64-mingw32/bin/../lib/gcc/nios2-elf/12.3.1/../../../../../H-x86_64-mingw32/nios2-elf/lib/mhw-mulx\libc.a(libc_a-wcrtomb.o)
 .debug_line    0x0000c5fb       0x48 c:/intelfpga_lite/23.1std/nios2eds/bin/gnu/h-x86_64-mingw32/bin/../lib/gcc/nios2-elf/12.3.1/../../../../../H-x86_64-mingw32/nios2-elf/lib/mhw-mulx\libc.a(libc_a-ctype_.o)
 .debug_line    0x0000c643      0x17b c:/intelfpga_lite/23.1std/nios2eds/bin/gnu/h-x86_64-mingw32/bin/../lib/gcc/nios2-elf/12.3.1/../../../../../H-x86_64-mingw32/nios2-elf/lib/mhw-mulx\libc.a(libc_a-fclose.o)
 .debug_line    0x0000c7be      0x2b3 c:/intelfpga_lite/23.1std/nios2eds/bin/gnu/h-x86_64-mingw32/bin/../lib/gcc/nios2-elf/12.3.1/../../../../../H-x86_64-mingw32/nios2-elf/lib/mhw-mulx\libc.a(libc_a-makebuf.o)
 .debug_line    0x0000ca71      0x1fc c:/intelfpga_lite/23.1std/nios2eds/bin/gnu/h-x86_64-mingw32/bin/../lib/gcc/nios2-elf/12.3.1/../../../../../H-x86_64-mingw32/nios2-elf/lib/mhw-mulx\libc.a(libc_a-wbuf.o)
 .debug_line    0x0000cc6d       0xf4 c:/intelfpga_lite/23.1std/nios2eds/bin/gnu/h-x86_64-mingw32/bin/../lib/gcc/nios2-elf/12.3.1/../../../../../H-x86_64-mingw32/nios2-elf/lib/mhw-mulx\libc.a(libc_a-strcmp.o)
 .debug_line    0x0000cd61       0xd3 c:/intelfpga_lite/23.1std/nios2eds/bin/gnu/h-x86_64-mingw32/bin/../lib/gcc/nios2-elf/12.3.1/../../../../../H-x86_64-mingw32/nios2-elf/lib/mhw-mulx\libc.a(libc_a-fstatr.o)
 .debug_line    0x0000ce34       0xba c:/intelfpga_lite/23.1std/nios2eds/bin/gnu/h-x86_64-mingw32/bin/../lib/gcc/nios2-elf/12.3.1/../../../../../H-x86_64-mingw32/nios2-elf/lib/mhw-mulx\libc.a(libc_a-isattyr.o)
 .debug_line    0x0000ceee       0xb6 c:/intelfpga_lite/23.1std/nios2eds/bin/gnu/h-x86_64-mingw32/bin/../lib/gcc/nios2-elf/12.3.1/../../../../../H-x86_64-mingw32/nios2-elf/lib/mhw-mulx\libc.a(libc_a-sbrkr.o)
 .debug_line    0x0000cfa4      0x162 c:/intelfpga_lite/23.1std/nios2eds/bin/gnu/h-x86_64-mingw32/bin/../lib/gcc/nios2-elf/12.3.1/../../../../../H-x86_64-mingw32/nios2-elf/lib/mhw-mulx\libc.a(libc_a-__call_atexit.o)
 .debug_line    0x0000d106       0xc9 c:/intelfpga_lite/23.1std/nios2eds/bin/gnu/h-x86_64-mingw32/bin/../lib/gcc/nios2-elf/12.3.1/../../../../../H-x86_64-mingw32/nios2-elf/lib/mhw-mulx\libc.a(libc_a-assert.o)
 .debug_line    0x0000d1cf      0x15e c:/intelfpga_lite/23.1std/nios2eds/bin/gnu/h-x86_64-mingw32/bin/../lib/gcc/nios2-elf/12.3.1/../../../../../H-x86_64-mingw32/nios2-elf/lib/mhw-mulx\libc.a(libc_a-callocr.o)
 .debug_line    0x0000d32d       0xb9 c:/intelfpga_lite/23.1std/nios2eds/bin/gnu/h-x86_64-mingw32/bin/../lib/gcc/nios2-elf/12.3.1/../../../../../H-x86_64-mingw32/nios2-elf/lib/mhw-mulx\libc.a(libc_a-fiprintf.o)
 .debug_line    0x0000d3e6       0x87 c:/intelfpga_lite/23.1std/nios2eds/bin/gnu/h-x86_64-mingw32/bin/../lib/gcc/nios2-elf/12.3.1/../../../../../H-x86_64-mingw32/nios2-elf/lib/mhw-mulx\libc.a(libc_a-vfiprintfr_1.o)
 .debug_line    0x0000d46d       0x73 c:/intelfpga_lite/23.1std/nios2eds/bin/gnu/h-x86_64-mingw32/bin/../lib/gcc/nios2-elf/12.3.1/../../../../../H-x86_64-mingw32/nios2-elf/lib/mhw-mulx\libc.a(libc_a-errno.o)
 .debug_line    0x0000d4e0       0x7b c:/intelfpga_lite/23.1std/nios2eds/bin/gnu/h-x86_64-mingw32/bin/../lib/gcc/nios2-elf/12.3.1/../../../../../H-x86_64-mingw32/nios2-elf/lib/mhw-mulx\libc.a(libc_a-abort.o)
 .debug_line    0x0000d55b      0x562 c:/intelfpga_lite/23.1std/nios2eds/bin/gnu/h-x86_64-mingw32/bin/../lib/gcc/nios2-elf/12.3.1/../../../../../H-x86_64-mingw32/nios2-elf/lib/mhw-mulx\libc.a(libc_a-signal.o)
 .debug_line    0x0000dabd       0xe1 c:/intelfpga_lite/23.1std/nios2eds/bin/gnu/h-x86_64-mingw32/bin/../lib/gcc/nios2-elf/12.3.1/../../../../../H-x86_64-mingw32/nios2-elf/lib/mhw-mulx\libc.a(libc_a-signalr.o)
 .debug_line    0x0000db9e      0x31c c:/intelfpga_lite/23.1std/nios2eds/bin/gnu/h-x86_64-mingw32/bin/../lib/gcc/nios2-elf/12.3.1/mhw-mulx\libgcc.a(_udivdi3.o)
 .debug_line    0x0000deba      0x36e c:/intelfpga_lite/23.1std/nios2eds/bin/gnu/h-x86_64-mingw32/bin/../lib/gcc/nios2-elf/12.3.1/mhw-mulx\libgcc.a(_umoddi3.o)
 .debug_line    0x0000e228      0x2e3 c:/intelfpga_lite/23.1std/nios2eds/bin/gnu/h-x86_64-mingw32/bin/../lib/gcc/nios2-elf/12.3.1/mhw-mulx\libgcc.a(lib2-divmod.o)
 .debug_line    0x0000e50b      0xcda c:/intelfpga_lite/23.1std/nios2eds/bin/gnu/h-x86_64-mingw32/bin/../lib/gcc/nios2-elf/12.3.1/mhw-mulx\libgcc.a(adddf3.o)
 .debug_line    0x0000f1e5      0xabe c:/intelfpga_lite/23.1std/nios2eds/bin/gnu/h-x86_64-mingw32/bin/../lib/gcc/nios2-elf/12.3.1/mhw-mulx\libgcc.a(divdf3.o)
 .debug_line    0x0000fca3       0xec c:/intelfpga_lite/23.1std/nios2eds/bin/gnu/h-x86_64-mingw32/bin/../lib/gcc/nios2-elf/12.3.1/mhw-mulx\libgcc.a(eqdf2.o)
 .debug_line    0x0000fd8f      0x170 c:/intelfpga_lite/23.1std/nios2eds/bin/gnu/h-x86_64-mingw32/bin/../lib/gcc/nios2-elf/12.3.1/mhw-mulx\libgcc.a(gedf2.o)
 .debug_line    0x0000feff      0x167 c:/intelfpga_lite/23.1std/nios2eds/bin/gnu/h-x86_64-mingw32/bin/../lib/gcc/nios2-elf/12.3.1/mhw-mulx\libgcc.a(ledf2.o)
 .debug_line    0x00010066      0x985 c:/intelfpga_lite/23.1std/nios2eds/bin/gnu/h-x86_64-mingw32/bin/../lib/gcc/nios2-elf/12.3.1/mhw-mulx\libgcc.a(muldf3.o)
 .debug_line    0x000109eb      0xe1b c:/intelfpga_lite/23.1std/nios2eds/bin/gnu/h-x86_64-mingw32/bin/../lib/gcc/nios2-elf/12.3.1/mhw-mulx\libgcc.a(subdf3.o)
 .debug_line    0x00011806       0xb3 c:/intelfpga_lite/23.1std/nios2eds/bin/gnu/h-x86_64-mingw32/bin/../lib/gcc/nios2-elf/12.3.1/mhw-mulx\libgcc.a(unorddf2.o)
 .debug_line    0x000118b9      0x10e c:/intelfpga_lite/23.1std/nios2eds/bin/gnu/h-x86_64-mingw32/bin/../lib/gcc/nios2-elf/12.3.1/mhw-mulx\libgcc.a(fixdfsi.o)
 .debug_line    0x000119c7      0x1c0 c:/intelfpga_lite/23.1std/nios2eds/bin/gnu/h-x86_64-mingw32/bin/../lib/gcc/nios2-elf/12.3.1/mhw-mulx\libgcc.a(floatsidf.o)
 .debug_line    0x00011b87      0x19f c:/intelfpga_lite/23.1std/nios2eds/bin/gnu/h-x86_64-mingw32/bin/../lib/gcc/nios2-elf/12.3.1/mhw-mulx\libgcc.a(floatunsidf.o)
 .debug_line    0x00011d26      0x116 c:/Users/Galileo/Projects/ELEC60011-fpga/system_template_de1_soc/software/hello_world2_bsp/\libhal_bsp.a(alt_close.o)
 .debug_line    0x00011e3c       0xa2 c:/Users/Galileo/Projects/ELEC60011-fpga/system_template_de1_soc/software/hello_world2_bsp/\libhal_bsp.a(alt_dev.o)
 .debug_line    0x00011ede       0x4c c:/Users/Galileo/Projects/ELEC60011-fpga/system_template_de1_soc/software/hello_world2_bsp/\libhal_bsp.a(alt_errno.o)
 .debug_line    0x00011f2a       0x7a c:/Users/Galileo/Projects/ELEC60011-fpga/system_template_de1_soc/software/hello_world2_bsp/\libhal_bsp.a(alt_exit.o)
 .debug_line    0x00011fa4      0x102 c:/Users/Galileo/Projects/ELEC60011-fpga/system_template_de1_soc/software/hello_world2_bsp/\libhal_bsp.a(alt_fstat.o)
 .debug_line    0x000120a6       0x51 c:/Users/Galileo/Projects/ELEC60011-fpga/system_template_de1_soc/software/hello_world2_bsp/\libhal_bsp.a(alt_getpid.o)
 .debug_line    0x000120f7      0x103 c:/Users/Galileo/Projects/ELEC60011-fpga/system_template_de1_soc/software/hello_world2_bsp/\libhal_bsp.a(alt_isatty.o)
 .debug_line    0x000121fa       0xc3 c:/Users/Galileo/Projects/ELEC60011-fpga/system_template_de1_soc/software/hello_world2_bsp/\libhal_bsp.a(alt_kill.o)
 .debug_line    0x000122bd       0x8f c:/Users/Galileo/Projects/ELEC60011-fpga/system_template_de1_soc/software/hello_world2_bsp/\libhal_bsp.a(alt_load.o)
 .debug_line    0x0001234c       0xfa c:/Users/Galileo/Projects/ELEC60011-fpga/system_template_de1_soc/software/hello_world2_bsp/\libhal_bsp.a(alt_lseek.o)
 .debug_line    0x00012446       0x91 c:/Users/Galileo/Projects/ELEC60011-fpga/system_template_de1_soc/software/hello_world2_bsp/\libhal_bsp.a(alt_main.o)
 .debug_line    0x000124d7       0x6b c:/Users/Galileo/Projects/ELEC60011-fpga/system_template_de1_soc/software/hello_world2_bsp/\libhal_bsp.a(alt_malloc_lock.o)
 .debug_line    0x00012542      0x136 c:/Users/Galileo/Projects/ELEC60011-fpga/system_template_de1_soc/software/hello_world2_bsp/\libhal_bsp.a(alt_read.o)
 .debug_line    0x00012678       0x77 c:/Users/Galileo/Projects/ELEC60011-fpga/system_template_de1_soc/software/hello_world2_bsp/\libhal_bsp.a(alt_release_fd.o)
 .debug_line    0x000126ef       0xb3 c:/Users/Galileo/Projects/ELEC60011-fpga/system_template_de1_soc/software/hello_world2_bsp/\libhal_bsp.a(alt_sbrk.o)
 .debug_line    0x000127a2       0xcf c:/Users/Galileo/Projects/ELEC60011-fpga/system_template_de1_soc/software/hello_world2_bsp/\libhal_bsp.a(alt_times.o)
 .debug_line    0x00012871      0x138 c:/Users/Galileo/Projects/ELEC60011-fpga/system_template_de1_soc/software/hello_world2_bsp/\libhal_bsp.a(alt_write.o)
 .debug_line    0x000129a9       0xb0 c:/Users/Galileo/Projects/ELEC60011-fpga/system_template_de1_soc/software/hello_world2_bsp/\libhal_bsp.a(alt_sys_init.o)
 .debug_line    0x00012a59       0x8a c:/Users/Galileo/Projects/ELEC60011-fpga/system_template_de1_soc/software/hello_world2_bsp/\libhal_bsp.a(altera_avalon_jtag_uart_fd.o)
 .debug_line    0x00012ae3       0xa4 c:/Users/Galileo/Projects/ELEC60011-fpga/system_template_de1_soc/software/hello_world2_bsp/\libhal_bsp.a(altera_avalon_jtag_uart_read.o)
 .debug_line    0x00012b87       0x7e c:/Users/Galileo/Projects/ELEC60011-fpga/system_template_de1_soc/software/hello_world2_bsp/\libhal_bsp.a(altera_avalon_jtag_uart_write.o)
 .debug_line    0x00012c05       0xb1 c:/Users/Galileo/Projects/ELEC60011-fpga/system_template_de1_soc/software/hello_world2_bsp/\libhal_bsp.a(altera_avalon_timer_sc.o)
 .debug_line    0x00012cb6       0x69 c:/Users/Galileo/Projects/ELEC60011-fpga/system_template_de1_soc/software/hello_world2_bsp/\libhal_bsp.a(alt_dcache_flush_all.o)
 .debug_line    0x00012d1f       0xca c:/Users/Galileo/Projects/ELEC60011-fpga/system_template_de1_soc/software/hello_world2_bsp/\libhal_bsp.a(alt_dev_llist_insert.o)
 .debug_line    0x00012de9       0x63 c:/Users/Galileo/Projects/ELEC60011-fpga/system_template_de1_soc/software/hello_world2_bsp/\libhal_bsp.a(alt_icache_flush_all.o)
 .debug_line    0x00012e4c       0xf4 c:/Users/Galileo/Projects/ELEC60011-fpga/system_template_de1_soc/software/hello_world2_bsp/\libhal_bsp.a(alt_iic.o)
 .debug_line    0x00012f40       0xbc c:/Users/Galileo/Projects/ELEC60011-fpga/system_template_de1_soc/software/hello_world2_bsp/\libhal_bsp.a(alt_iic_isr_register.o)
 .debug_line    0x00012ffc       0xd2 c:/Users/Galileo/Projects/ELEC60011-fpga/system_template_de1_soc/software/hello_world2_bsp/\libhal_bsp.a(alt_io_redirect.o)
 .debug_line    0x000130ce       0x6b c:/Users/Galileo/Projects/ELEC60011-fpga/system_template_de1_soc/software/hello_world2_bsp/\libhal_bsp.a(alt_irq_entry.o)
 .debug_line    0x00013139       0xb4 c:/Users/Galileo/Projects/ELEC60011-fpga/system_template_de1_soc/software/hello_world2_bsp/\libhal_bsp.a(alt_irq_handler.o)
 .debug_line    0x000131ed       0x43 c:/Users/Galileo/Projects/ELEC60011-fpga/system_template_de1_soc/software/hello_world2_bsp/\libhal_bsp.a(alt_irq_vars.o)
 .debug_line    0x00013230      0x158 c:/Users/Galileo/Projects/ELEC60011-fpga/system_template_de1_soc/software/hello_world2_bsp/\libhal_bsp.a(alt_open.o)
 .debug_line    0x00013388       0xf2 c:/Users/Galileo/Projects/ELEC60011-fpga/system_template_de1_soc/software/hello_world2_bsp/\libhal_bsp.a(alt_tick.o)
 .debug_line    0x0001347a       0x51 c:/Users/Galileo/Projects/ELEC60011-fpga/system_template_de1_soc/software/hello_world2_bsp/\libhal_bsp.a(altera_nios2_gen2_irq.o)
 .debug_line    0x000134cb       0x9d c:/Users/Galileo/Projects/ELEC60011-fpga/system_template_de1_soc/software/hello_world2_bsp/\libhal_bsp.a(alt_exception_entry.o)
 .debug_line    0x00013568       0xa1 c:/Users/Galileo/Projects/ELEC60011-fpga/system_template_de1_soc/software/hello_world2_bsp/\libhal_bsp.a(alt_find_dev.o)
 .debug_line    0x00013609       0xd7 c:/Users/Galileo/Projects/ELEC60011-fpga/system_template_de1_soc/software/hello_world2_bsp/\libhal_bsp.a(alt_find_file.o)
 .debug_line    0x000136e0       0xb2 c:/Users/Galileo/Projects/ELEC60011-fpga/system_template_de1_soc/software/hello_world2_bsp/\libhal_bsp.a(alt_get_fd.o)
 .debug_line    0x00013792       0x8f c:/Users/Galileo/Projects/ELEC60011-fpga/system_template_de1_soc/software/hello_world2_bsp/\libhal_bsp.a(alt_icache_flush.o)
 .debug_line    0x00013821       0xa1 c:/Users/Galileo/Projects/ELEC60011-fpga/system_template_de1_soc/software/hello_world2_bsp/\libhal_bsp.a(alt_instruction_exception_entry.o)
 .debug_line    0x000138c2       0xe1 c:/intelfpga_lite/23.1std/nios2eds/bin/gnu/h-x86_64-mingw32/bin/../lib/gcc/nios2-elf/12.3.1/../../../../../H-x86_64-mingw32/nios2-elf/lib/mhw-mulx\libc.a(libc_a-memcmp.o)

.debug_frame    0x00000000     0x2698
 *(.debug_frame)
 .debug_frame   0x00000000       0xc4 obj/default/hello_world.o
 .debug_frame   0x000000c4       0x30 c:/intelfpga_lite/23.1std/nios2eds/bin/gnu/h-x86_64-mingw32/bin/../lib/gcc/nios2-elf/12.3.1/../../../../../H-x86_64-mingw32/nios2-elf/lib/mhw-mulx\libm.a(libm_a-sf_cos.o)
 .debug_frame   0x000000f4       0x48 c:/intelfpga_lite/23.1std/nios2eds/bin/gnu/h-x86_64-mingw32/bin/../lib/gcc/nios2-elf/12.3.1/../../../../../H-x86_64-mingw32/nios2-elf/lib/mhw-mulx\libm.a(libm_a-kf_cos.o)
 .debug_frame   0x0000013c       0x48 c:/intelfpga_lite/23.1std/nios2eds/bin/gnu/h-x86_64-mingw32/bin/../lib/gcc/nios2-elf/12.3.1/../../../../../H-x86_64-mingw32/nios2-elf/lib/mhw-mulx\libm.a(libm_a-kf_sin.o)
 .debug_frame   0x00000184       0x54 c:/intelfpga_lite/23.1std/nios2eds/bin/gnu/h-x86_64-mingw32/bin/../lib/gcc/nios2-elf/12.3.1/../../../../../H-x86_64-mingw32/nios2-elf/lib/mhw-mulx\libm.a(libm_a-ef_rem_pio2.o)
 .debug_frame   0x000001d8       0x20 c:/intelfpga_lite/23.1std/nios2eds/bin/gnu/h-x86_64-mingw32/bin/../lib/gcc/nios2-elf/12.3.1/../../../../../H-x86_64-mingw32/nios2-elf/lib/mhw-mulx\libm.a(libm_a-sf_fabs.o)
 .debug_frame   0x000001f8       0x58 c:/intelfpga_lite/23.1std/nios2eds/bin/gnu/h-x86_64-mingw32/bin/../lib/gcc/nios2-elf/12.3.1/../../../../../H-x86_64-mingw32/nios2-elf/lib/mhw-mulx\libm.a(libm_a-kf_rem_pio2.o)
 .debug_frame   0x00000250       0x40 c:/intelfpga_lite/23.1std/nios2eds/bin/gnu/h-x86_64-mingw32/bin/../lib/gcc/nios2-elf/12.3.1/../../../../../H-x86_64-mingw32/nios2-elf/lib/mhw-mulx\libm.a(libm_a-sf_floor.o)
 .debug_frame   0x00000290       0x38 c:/intelfpga_lite/23.1std/nios2eds/bin/gnu/h-x86_64-mingw32/bin/../lib/gcc/nios2-elf/12.3.1/../../../../../H-x86_64-mingw32/nios2-elf/lib/mhw-mulx\libm.a(libm_a-sf_scalbn.o)
 .debug_frame   0x000002c8       0x3c c:/intelfpga_lite/23.1std/nios2eds/bin/gnu/h-x86_64-mingw32/bin/../lib/gcc/nios2-elf/12.3.1/mhw-mulx\libgcc.a(addsf3.o)
 .debug_frame   0x00000304       0x54 c:/intelfpga_lite/23.1std/nios2eds/bin/gnu/h-x86_64-mingw32/bin/../lib/gcc/nios2-elf/12.3.1/mhw-mulx\libgcc.a(divsf3.o)
 .debug_frame   0x00000358       0x20 c:/intelfpga_lite/23.1std/nios2eds/bin/gnu/h-x86_64-mingw32/bin/../lib/gcc/nios2-elf/12.3.1/mhw-mulx\libgcc.a(eqsf2.o)
 .debug_frame   0x00000378       0x20 c:/intelfpga_lite/23.1std/nios2eds/bin/gnu/h-x86_64-mingw32/bin/../lib/gcc/nios2-elf/12.3.1/mhw-mulx\libgcc.a(gesf2.o)
 .debug_frame   0x00000398       0x50 c:/intelfpga_lite/23.1std/nios2eds/bin/gnu/h-x86_64-mingw32/bin/../lib/gcc/nios2-elf/12.3.1/mhw-mulx\libgcc.a(mulsf3.o)
 .debug_frame   0x000003e8       0x3c c:/intelfpga_lite/23.1std/nios2eds/bin/gnu/h-x86_64-mingw32/bin/../lib/gcc/nios2-elf/12.3.1/mhw-mulx\libgcc.a(subsf3.o)
 .debug_frame   0x00000424       0x20 c:/intelfpga_lite/23.1std/nios2eds/bin/gnu/h-x86_64-mingw32/bin/../lib/gcc/nios2-elf/12.3.1/mhw-mulx\libgcc.a(fixsfsi.o)
 .debug_frame   0x00000444       0x38 c:/intelfpga_lite/23.1std/nios2eds/bin/gnu/h-x86_64-mingw32/bin/../lib/gcc/nios2-elf/12.3.1/mhw-mulx\libgcc.a(floatsisf.o)
 .debug_frame   0x0000047c       0x20 c:/intelfpga_lite/23.1std/nios2eds/bin/gnu/h-x86_64-mingw32/bin/../lib/gcc/nios2-elf/12.3.1/mhw-mulx\libgcc.a(_clzsi2.o)
 .debug_frame   0x0000049c       0x30 c:/intelfpga_lite/23.1std/nios2eds/bin/gnu/h-x86_64-mingw32/bin/../lib/gcc/nios2-elf/12.3.1/../../../../../H-x86_64-mingw32/nios2-elf/lib/mhw-mulx\libc.a(libc_a-rand.o)
 .debug_frame   0x000004cc       0x48 c:/intelfpga_lite/23.1std/nios2eds/bin/gnu/h-x86_64-mingw32/bin/../lib/gcc/nios2-elf/12.3.1/../../../../../H-x86_64-mingw32/nios2-elf/lib/mhw-mulx\libc.a(libc_a-printf.o)
 .debug_frame   0x00000514       0x48 c:/intelfpga_lite/23.1std/nios2eds/bin/gnu/h-x86_64-mingw32/bin/../lib/gcc/nios2-elf/12.3.1/../../../../../H-x86_64-mingw32/nios2-elf/lib/mhw-mulx\libc.a(libc_a-puts.o)
 .debug_frame   0x0000055c       0x20 c:/intelfpga_lite/23.1std/nios2eds/bin/gnu/h-x86_64-mingw32/bin/../lib/gcc/nios2-elf/12.3.1/../../../../../H-x86_64-mingw32/nios2-elf/lib/mhw-mulx\libc.a(libc_a-strlen.o)
 .debug_frame   0x0000057c       0xb4 c:/intelfpga_lite/23.1std/nios2eds/bin/gnu/h-x86_64-mingw32/bin/../lib/gcc/nios2-elf/12.3.1/../../../../../H-x86_64-mingw32/nios2-elf/lib/mhw-mulx\libc.a(libc_a-vfprintf.o)
 .debug_frame   0x00000630      0x104 c:/intelfpga_lite/23.1std/nios2eds/bin/gnu/h-x86_64-mingw32/bin/../lib/gcc/nios2-elf/12.3.1/../../../../../H-x86_64-mingw32/nios2-elf/lib/mhw-mulx\libc.a(libc_a-vfiprintf.o)
 .debug_frame   0x00000734       0x94 c:/intelfpga_lite/23.1std/nios2eds/bin/gnu/h-x86_64-mingw32/bin/../lib/gcc/nios2-elf/12.3.1/../../../../../H-x86_64-mingw32/nios2-elf/lib/mhw-mulx\libc.a(libc_a-fflush.o)
 .debug_frame   0x000007c8      0x11c c:/intelfpga_lite/23.1std/nios2eds/bin/gnu/h-x86_64-mingw32/bin/../lib/gcc/nios2-elf/12.3.1/../../../../../H-x86_64-mingw32/nios2-elf/lib/mhw-mulx\libc.a(libc_a-findfp.o)
 .debug_frame   0x000008e4       0x78 c:/intelfpga_lite/23.1std/nios2eds/bin/gnu/h-x86_64-mingw32/bin/../lib/gcc/nios2-elf/12.3.1/../../../../../H-x86_64-mingw32/nios2-elf/lib/mhw-mulx\libc.a(libc_a-fvwrite.o)
 .debug_frame   0x0000095c       0x44 c:/intelfpga_lite/23.1std/nios2eds/bin/gnu/h-x86_64-mingw32/bin/../lib/gcc/nios2-elf/12.3.1/../../../../../H-x86_64-mingw32/nios2-elf/lib/mhw-mulx\libc.a(libc_a-fwalk.o)
 .debug_frame   0x000009a0       0xb8 c:/intelfpga_lite/23.1std/nios2eds/bin/gnu/h-x86_64-mingw32/bin/../lib/gcc/nios2-elf/12.3.1/../../../../../H-x86_64-mingw32/nios2-elf/lib/mhw-mulx\libc.a(libc_a-stdio.o)
 .debug_frame   0x00000a58       0x38 c:/intelfpga_lite/23.1std/nios2eds/bin/gnu/h-x86_64-mingw32/bin/../lib/gcc/nios2-elf/12.3.1/../../../../../H-x86_64-mingw32/nios2-elf/lib/mhw-mulx\libc.a(libc_a-wsetup.o)
 .debug_frame   0x00000a90       0x78 c:/intelfpga_lite/23.1std/nios2eds/bin/gnu/h-x86_64-mingw32/bin/../lib/gcc/nios2-elf/12.3.1/../../../../../H-x86_64-mingw32/nios2-elf/lib/mhw-mulx\libc.a(libc_a-fputwc.o)
 .debug_frame   0x00000b08       0x20 c:/intelfpga_lite/23.1std/nios2eds/bin/gnu/h-x86_64-mingw32/bin/../lib/gcc/nios2-elf/12.3.1/../../../../../H-x86_64-mingw32/nios2-elf/lib/mhw-mulx\libc.a(libc_a-memchr.o)
 .debug_frame   0x00000b28       0x20 c:/intelfpga_lite/23.1std/nios2eds/bin/gnu/h-x86_64-mingw32/bin/../lib/gcc/nios2-elf/12.3.1/../../../../../H-x86_64-mingw32/nios2-elf/lib/mhw-mulx\libc.a(libc_a-memcpy.o)
 .debug_frame   0x00000b48       0x20 c:/intelfpga_lite/23.1std/nios2eds/bin/gnu/h-x86_64-mingw32/bin/../lib/gcc/nios2-elf/12.3.1/../../../../../H-x86_64-mingw32/nios2-elf/lib/mhw-mulx\libc.a(libc_a-memmove.o)
 .debug_frame   0x00000b68       0x20 c:/intelfpga_lite/23.1std/nios2eds/bin/gnu/h-x86_64-mingw32/bin/../lib/gcc/nios2-elf/12.3.1/../../../../../H-x86_64-mingw32/nios2-elf/lib/mhw-mulx\libc.a(libc_a-memset.o)
 .debug_frame   0x00000b88       0x70 c:/intelfpga_lite/23.1std/nios2eds/bin/gnu/h-x86_64-mingw32/bin/../lib/gcc/nios2-elf/12.3.1/../../../../../H-x86_64-mingw32/nios2-elf/lib/mhw-mulx\libc.a(libc_a-locale.o)
 .debug_frame   0x00000bf8       0x40 c:/intelfpga_lite/23.1std/nios2eds/bin/gnu/h-x86_64-mingw32/bin/../lib/gcc/nios2-elf/12.3.1/../../../../../H-x86_64-mingw32/nios2-elf/lib/mhw-mulx\libc.a(libc_a-localeconv.o)
 .debug_frame   0x00000c38       0x3c c:/intelfpga_lite/23.1std/nios2eds/bin/gnu/h-x86_64-mingw32/bin/../lib/gcc/nios2-elf/12.3.1/../../../../../H-x86_64-mingw32/nios2-elf/lib/mhw-mulx\libc.a(libc_a-closer.o)
 .debug_frame   0x00000c74       0x48 c:/intelfpga_lite/23.1std/nios2eds/bin/gnu/h-x86_64-mingw32/bin/../lib/gcc/nios2-elf/12.3.1/../../../../../H-x86_64-mingw32/nios2-elf/lib/mhw-mulx\libc.a(libc_a-reent.o)
 .debug_frame   0x00000cbc       0x3c c:/intelfpga_lite/23.1std/nios2eds/bin/gnu/h-x86_64-mingw32/bin/../lib/gcc/nios2-elf/12.3.1/../../../../../H-x86_64-mingw32/nios2-elf/lib/mhw-mulx\libc.a(libc_a-lseekr.o)
 .debug_frame   0x00000cf8       0x3c c:/intelfpga_lite/23.1std/nios2eds/bin/gnu/h-x86_64-mingw32/bin/../lib/gcc/nios2-elf/12.3.1/../../../../../H-x86_64-mingw32/nios2-elf/lib/mhw-mulx\libc.a(libc_a-readr.o)
 .debug_frame   0x00000d34       0x3c c:/intelfpga_lite/23.1std/nios2eds/bin/gnu/h-x86_64-mingw32/bin/../lib/gcc/nios2-elf/12.3.1/../../../../../H-x86_64-mingw32/nios2-elf/lib/mhw-mulx\libc.a(libc_a-writer.o)
 .debug_frame   0x00000d70       0x9c c:/intelfpga_lite/23.1std/nios2eds/bin/gnu/h-x86_64-mingw32/bin/../lib/gcc/nios2-elf/12.3.1/../../../../../H-x86_64-mingw32/nios2-elf/lib/mhw-mulx\libc.a(libc_a-dtoa.o)
 .debug_frame   0x00000e0c       0x28 c:/intelfpga_lite/23.1std/nios2eds/bin/gnu/h-x86_64-mingw32/bin/../lib/gcc/nios2-elf/12.3.1/../../../../../H-x86_64-mingw32/nios2-elf/lib/mhw-mulx\libc.a(libc_a-exit.o)
 .debug_frame   0x00000e34       0x80 c:/intelfpga_lite/23.1std/nios2eds/bin/gnu/h-x86_64-mingw32/bin/../lib/gcc/nios2-elf/12.3.1/../../../../../H-x86_64-mingw32/nios2-elf/lib/mhw-mulx\libc.a(libc_a-freer.o)
 .debug_frame   0x00000eb4       0x54 c:/intelfpga_lite/23.1std/nios2eds/bin/gnu/h-x86_64-mingw32/bin/../lib/gcc/nios2-elf/12.3.1/../../../../../H-x86_64-mingw32/nios2-elf/lib/mhw-mulx\libc.a(libc_a-mallocr.o)
 .debug_frame   0x00000f08       0x40 c:/intelfpga_lite/23.1std/nios2eds/bin/gnu/h-x86_64-mingw32/bin/../lib/gcc/nios2-elf/12.3.1/../../../../../H-x86_64-mingw32/nios2-elf/lib/mhw-mulx\libc.a(libc_a-mbtowc_r.o)
 .debug_frame   0x00000f48      0x2d4 c:/intelfpga_lite/23.1std/nios2eds/bin/gnu/h-x86_64-mingw32/bin/../lib/gcc/nios2-elf/12.3.1/../../../../../H-x86_64-mingw32/nios2-elf/lib/mhw-mulx\libc.a(libc_a-mprec.o)
 .debug_frame   0x0000121c       0x70 c:/intelfpga_lite/23.1std/nios2eds/bin/gnu/h-x86_64-mingw32/bin/../lib/gcc/nios2-elf/12.3.1/../../../../../H-x86_64-mingw32/nios2-elf/lib/mhw-mulx\libc.a(libc_a-reallocr.o)
 .debug_frame   0x0000128c       0x30 c:/intelfpga_lite/23.1std/nios2eds/bin/gnu/h-x86_64-mingw32/bin/../lib/gcc/nios2-elf/12.3.1/../../../../../H-x86_64-mingw32/nios2-elf/lib/mhw-mulx\libc.a(libc_a-wctomb_r.o)
 .debug_frame   0x000012bc       0x60 c:/intelfpga_lite/23.1std/nios2eds/bin/gnu/h-x86_64-mingw32/bin/../lib/gcc/nios2-elf/12.3.1/../../../../../H-x86_64-mingw32/nios2-elf/lib/mhw-mulx\libc.a(libc_a-wcrtomb.o)
 .debug_frame   0x0000131c       0x4c c:/intelfpga_lite/23.1std/nios2eds/bin/gnu/h-x86_64-mingw32/bin/../lib/gcc/nios2-elf/12.3.1/../../../../../H-x86_64-mingw32/nios2-elf/lib/mhw-mulx\libc.a(libc_a-fclose.o)
 .debug_frame   0x00001368       0x6c c:/intelfpga_lite/23.1std/nios2eds/bin/gnu/h-x86_64-mingw32/bin/../lib/gcc/nios2-elf/12.3.1/../../../../../H-x86_64-mingw32/nios2-elf/lib/mhw-mulx\libc.a(libc_a-makebuf.o)
 .debug_frame   0x000013d4       0x50 c:/intelfpga_lite/23.1std/nios2eds/bin/gnu/h-x86_64-mingw32/bin/../lib/gcc/nios2-elf/12.3.1/../../../../../H-x86_64-mingw32/nios2-elf/lib/mhw-mulx\libc.a(libc_a-wbuf.o)
 .debug_frame   0x00001424       0x20 c:/intelfpga_lite/23.1std/nios2eds/bin/gnu/h-x86_64-mingw32/bin/../lib/gcc/nios2-elf/12.3.1/../../../../../H-x86_64-mingw32/nios2-elf/lib/mhw-mulx\libc.a(libc_a-strcmp.o)
 .debug_frame   0x00001444       0x3c c:/intelfpga_lite/23.1std/nios2eds/bin/gnu/h-x86_64-mingw32/bin/../lib/gcc/nios2-elf/12.3.1/../../../../../H-x86_64-mingw32/nios2-elf/lib/mhw-mulx\libc.a(libc_a-fstatr.o)
 .debug_frame   0x00001480       0x3c c:/intelfpga_lite/23.1std/nios2eds/bin/gnu/h-x86_64-mingw32/bin/../lib/gcc/nios2-elf/12.3.1/../../../../../H-x86_64-mingw32/nios2-elf/lib/mhw-mulx\libc.a(libc_a-isattyr.o)
 .debug_frame   0x000014bc       0x3c c:/intelfpga_lite/23.1std/nios2eds/bin/gnu/h-x86_64-mingw32/bin/../lib/gcc/nios2-elf/12.3.1/../../../../../H-x86_64-mingw32/nios2-elf/lib/mhw-mulx\libc.a(libc_a-sbrkr.o)
 .debug_frame   0x000014f8       0x4c c:/intelfpga_lite/23.1std/nios2eds/bin/gnu/h-x86_64-mingw32/bin/../lib/gcc/nios2-elf/12.3.1/../../../../../H-x86_64-mingw32/nios2-elf/lib/mhw-mulx\libc.a(libc_a-__call_atexit.o)
 .debug_frame   0x00001544       0x40 c:/intelfpga_lite/23.1std/nios2eds/bin/gnu/h-x86_64-mingw32/bin/../lib/gcc/nios2-elf/12.3.1/../../../../../H-x86_64-mingw32/nios2-elf/lib/mhw-mulx\libc.a(libc_a-assert.o)
 .debug_frame   0x00001584       0x34 c:/intelfpga_lite/23.1std/nios2eds/bin/gnu/h-x86_64-mingw32/bin/../lib/gcc/nios2-elf/12.3.1/../../../../../H-x86_64-mingw32/nios2-elf/lib/mhw-mulx\libc.a(libc_a-callocr.o)
 .debug_frame   0x000015b8       0x48 c:/intelfpga_lite/23.1std/nios2eds/bin/gnu/h-x86_64-mingw32/bin/../lib/gcc/nios2-elf/12.3.1/../../../../../H-x86_64-mingw32/nios2-elf/lib/mhw-mulx\libc.a(libc_a-fiprintf.o)
 .debug_frame   0x00001600       0x20 c:/intelfpga_lite/23.1std/nios2eds/bin/gnu/h-x86_64-mingw32/bin/../lib/gcc/nios2-elf/12.3.1/../../../../../H-x86_64-mingw32/nios2-elf/lib/mhw-mulx\libc.a(libc_a-vfiprintfr_1.o)
 .debug_frame   0x00001620       0x20 c:/intelfpga_lite/23.1std/nios2eds/bin/gnu/h-x86_64-mingw32/bin/../lib/gcc/nios2-elf/12.3.1/../../../../../H-x86_64-mingw32/nios2-elf/lib/mhw-mulx\libc.a(libc_a-errno.o)
 .debug_frame   0x00001640       0x28 c:/intelfpga_lite/23.1std/nios2eds/bin/gnu/h-x86_64-mingw32/bin/../lib/gcc/nios2-elf/12.3.1/../../../../../H-x86_64-mingw32/nios2-elf/lib/mhw-mulx\libc.a(libc_a-abort.o)
 .debug_frame   0x00001668      0x16c c:/intelfpga_lite/23.1std/nios2eds/bin/gnu/h-x86_64-mingw32/bin/../lib/gcc/nios2-elf/12.3.1/../../../../../H-x86_64-mingw32/nios2-elf/lib/mhw-mulx\libc.a(libc_a-signal.o)
 .debug_frame   0x000017d4       0x4c c:/intelfpga_lite/23.1std/nios2eds/bin/gnu/h-x86_64-mingw32/bin/../lib/gcc/nios2-elf/12.3.1/../../../../../H-x86_64-mingw32/nios2-elf/lib/mhw-mulx\libc.a(libc_a-signalr.o)
 .debug_frame   0x00001820       0x54 c:/intelfpga_lite/23.1std/nios2eds/bin/gnu/h-x86_64-mingw32/bin/../lib/gcc/nios2-elf/12.3.1/mhw-mulx\libgcc.a(_udivdi3.o)
 .debug_frame   0x00001874       0x54 c:/intelfpga_lite/23.1std/nios2eds/bin/gnu/h-x86_64-mingw32/bin/../lib/gcc/nios2-elf/12.3.1/mhw-mulx\libgcc.a(_umoddi3.o)
 .debug_frame   0x000018c8       0x50 c:/intelfpga_lite/23.1std/nios2eds/bin/gnu/h-x86_64-mingw32/bin/../lib/gcc/nios2-elf/12.3.1/mhw-mulx\libgcc.a(lib2-divmod.o)
 .debug_frame   0x00001918       0x48 c:/intelfpga_lite/23.1std/nios2eds/bin/gnu/h-x86_64-mingw32/bin/../lib/gcc/nios2-elf/12.3.1/mhw-mulx\libgcc.a(adddf3.o)
 .debug_frame   0x00001960       0x54 c:/intelfpga_lite/23.1std/nios2eds/bin/gnu/h-x86_64-mingw32/bin/../lib/gcc/nios2-elf/12.3.1/mhw-mulx\libgcc.a(divdf3.o)
 .debug_frame   0x000019b4       0x20 c:/intelfpga_lite/23.1std/nios2eds/bin/gnu/h-x86_64-mingw32/bin/../lib/gcc/nios2-elf/12.3.1/mhw-mulx\libgcc.a(eqdf2.o)
 .debug_frame   0x000019d4       0x20 c:/intelfpga_lite/23.1std/nios2eds/bin/gnu/h-x86_64-mingw32/bin/../lib/gcc/nios2-elf/12.3.1/mhw-mulx\libgcc.a(gedf2.o)
 .debug_frame   0x000019f4       0x20 c:/intelfpga_lite/23.1std/nios2eds/bin/gnu/h-x86_64-mingw32/bin/../lib/gcc/nios2-elf/12.3.1/mhw-mulx\libgcc.a(ledf2.o)
 .debug_frame   0x00001a14       0x54 c:/intelfpga_lite/23.1std/nios2eds/bin/gnu/h-x86_64-mingw32/bin/../lib/gcc/nios2-elf/12.3.1/mhw-mulx\libgcc.a(muldf3.o)
 .debug_frame   0x00001a68       0x48 c:/intelfpga_lite/23.1std/nios2eds/bin/gnu/h-x86_64-mingw32/bin/../lib/gcc/nios2-elf/12.3.1/mhw-mulx\libgcc.a(subdf3.o)
 .debug_frame   0x00001ab0       0x20 c:/intelfpga_lite/23.1std/nios2eds/bin/gnu/h-x86_64-mingw32/bin/../lib/gcc/nios2-elf/12.3.1/mhw-mulx\libgcc.a(unorddf2.o)
 .debug_frame   0x00001ad0       0x20 c:/intelfpga_lite/23.1std/nios2eds/bin/gnu/h-x86_64-mingw32/bin/../lib/gcc/nios2-elf/12.3.1/mhw-mulx\libgcc.a(fixdfsi.o)
 .debug_frame   0x00001af0       0x38 c:/intelfpga_lite/23.1std/nios2eds/bin/gnu/h-x86_64-mingw32/bin/../lib/gcc/nios2-elf/12.3.1/mhw-mulx\libgcc.a(floatsidf.o)
 .debug_frame   0x00001b28       0x34 c:/intelfpga_lite/23.1std/nios2eds/bin/gnu/h-x86_64-mingw32/bin/../lib/gcc/nios2-elf/12.3.1/mhw-mulx\libgcc.a(floatunsidf.o)
 .debug_frame   0x00001b5c       0x60 c:/Users/Galileo/Projects/ELEC60011-fpga/system_template_de1_soc/software/hello_world2_bsp/\libhal_bsp.a(alt_close.o)
 .debug_frame   0x00001bbc       0x34 c:/Users/Galileo/Projects/ELEC60011-fpga/system_template_de1_soc/software/hello_world2_bsp/\libhal_bsp.a(alt_dev.o)
 .debug_frame   0x00001bf0       0x2c c:/Users/Galileo/Projects/ELEC60011-fpga/system_template_de1_soc/software/hello_world2_bsp/\libhal_bsp.a(alt_exit.o)
 .debug_frame   0x00001c1c       0x60 c:/Users/Galileo/Projects/ELEC60011-fpga/system_template_de1_soc/software/hello_world2_bsp/\libhal_bsp.a(alt_fstat.o)
 .debug_frame   0x00001c7c       0x34 c:/Users/Galileo/Projects/ELEC60011-fpga/system_template_de1_soc/software/hello_world2_bsp/\libhal_bsp.a(alt_getpid.o)
 .debug_frame   0x00001cb0       0x60 c:/Users/Galileo/Projects/ELEC60011-fpga/system_template_de1_soc/software/hello_world2_bsp/\libhal_bsp.a(alt_isatty.o)
 .debug_frame   0x00001d10       0x60 c:/Users/Galileo/Projects/ELEC60011-fpga/system_template_de1_soc/software/hello_world2_bsp/\libhal_bsp.a(alt_kill.o)
 .debug_frame   0x00001d70       0x5c c:/Users/Galileo/Projects/ELEC60011-fpga/system_template_de1_soc/software/hello_world2_bsp/\libhal_bsp.a(alt_load.o)
 .debug_frame   0x00001dcc       0x60 c:/Users/Galileo/Projects/ELEC60011-fpga/system_template_de1_soc/software/hello_world2_bsp/\libhal_bsp.a(alt_lseek.o)
 .debug_frame   0x00001e2c       0x2c c:/Users/Galileo/Projects/ELEC60011-fpga/system_template_de1_soc/software/hello_world2_bsp/\libhal_bsp.a(alt_main.o)
 .debug_frame   0x00001e58       0x58 c:/Users/Galileo/Projects/ELEC60011-fpga/system_template_de1_soc/software/hello_world2_bsp/\libhal_bsp.a(alt_malloc_lock.o)
 .debug_frame   0x00001eb0       0x60 c:/Users/Galileo/Projects/ELEC60011-fpga/system_template_de1_soc/software/hello_world2_bsp/\libhal_bsp.a(alt_read.o)
 .debug_frame   0x00001f10       0x34 c:/Users/Galileo/Projects/ELEC60011-fpga/system_template_de1_soc/software/hello_world2_bsp/\libhal_bsp.a(alt_release_fd.o)
 .debug_frame   0x00001f44       0x34 c:/Users/Galileo/Projects/ELEC60011-fpga/system_template_de1_soc/software/hello_world2_bsp/\libhal_bsp.a(alt_sbrk.o)
 .debug_frame   0x00001f78       0x60 c:/Users/Galileo/Projects/ELEC60011-fpga/system_template_de1_soc/software/hello_world2_bsp/\libhal_bsp.a(alt_times.o)
 .debug_frame   0x00001fd8       0x60 c:/Users/Galileo/Projects/ELEC60011-fpga/system_template_de1_soc/software/hello_world2_bsp/\libhal_bsp.a(alt_write.o)
 .debug_frame   0x00002038       0x88 c:/Users/Galileo/Projects/ELEC60011-fpga/system_template_de1_soc/software/hello_world2_bsp/\libhal_bsp.a(alt_sys_init.o)
 .debug_frame   0x000020c0       0x60 c:/Users/Galileo/Projects/ELEC60011-fpga/system_template_de1_soc/software/hello_world2_bsp/\libhal_bsp.a(altera_avalon_jtag_uart_fd.o)
 .debug_frame   0x00002120       0x34 c:/Users/Galileo/Projects/ELEC60011-fpga/system_template_de1_soc/software/hello_world2_bsp/\libhal_bsp.a(altera_avalon_jtag_uart_read.o)
 .debug_frame   0x00002154       0x34 c:/Users/Galileo/Projects/ELEC60011-fpga/system_template_de1_soc/software/hello_world2_bsp/\libhal_bsp.a(altera_avalon_jtag_uart_write.o)
 .debug_frame   0x00002188       0x60 c:/Users/Galileo/Projects/ELEC60011-fpga/system_template_de1_soc/software/hello_world2_bsp/\libhal_bsp.a(altera_avalon_timer_sc.o)
 .debug_frame   0x000021e8       0x34 c:/Users/Galileo/Projects/ELEC60011-fpga/system_template_de1_soc/software/hello_world2_bsp/\libhal_bsp.a(alt_dcache_flush_all.o)
 .debug_frame   0x0000221c       0x60 c:/Users/Galileo/Projects/ELEC60011-fpga/system_template_de1_soc/software/hello_world2_bsp/\libhal_bsp.a(alt_dev_llist_insert.o)
 .debug_frame   0x0000227c       0x38 c:/Users/Galileo/Projects/ELEC60011-fpga/system_template_de1_soc/software/hello_world2_bsp/\libhal_bsp.a(alt_icache_flush_all.o)
 .debug_frame   0x000022b4       0xa4 c:/Users/Galileo/Projects/ELEC60011-fpga/system_template_de1_soc/software/hello_world2_bsp/\libhal_bsp.a(alt_iic.o)
 .debug_frame   0x00002358       0x38 c:/Users/Galileo/Projects/ELEC60011-fpga/system_template_de1_soc/software/hello_world2_bsp/\libhal_bsp.a(alt_iic_isr_register.o)
 .debug_frame   0x00002390       0x60 c:/Users/Galileo/Projects/ELEC60011-fpga/system_template_de1_soc/software/hello_world2_bsp/\libhal_bsp.a(alt_io_redirect.o)
 .debug_frame   0x000023f0       0x38 c:/Users/Galileo/Projects/ELEC60011-fpga/system_template_de1_soc/software/hello_world2_bsp/\libhal_bsp.a(alt_irq_handler.o)
 .debug_frame   0x00002428       0x84 c:/Users/Galileo/Projects/ELEC60011-fpga/system_template_de1_soc/software/hello_world2_bsp/\libhal_bsp.a(alt_open.o)
 .debug_frame   0x000024ac       0x64 c:/Users/Galileo/Projects/ELEC60011-fpga/system_template_de1_soc/software/hello_world2_bsp/\libhal_bsp.a(alt_tick.o)
 .debug_frame   0x00002510       0x34 c:/Users/Galileo/Projects/ELEC60011-fpga/system_template_de1_soc/software/hello_world2_bsp/\libhal_bsp.a(altera_nios2_gen2_irq.o)
 .debug_frame   0x00002544       0x38 c:/Users/Galileo/Projects/ELEC60011-fpga/system_template_de1_soc/software/hello_world2_bsp/\libhal_bsp.a(alt_find_dev.o)
 .debug_frame   0x0000257c       0x38 c:/Users/Galileo/Projects/ELEC60011-fpga/system_template_de1_soc/software/hello_world2_bsp/\libhal_bsp.a(alt_find_file.o)
 .debug_frame   0x000025b4       0x34 c:/Users/Galileo/Projects/ELEC60011-fpga/system_template_de1_soc/software/hello_world2_bsp/\libhal_bsp.a(alt_get_fd.o)
 .debug_frame   0x000025e8       0x34 c:/Users/Galileo/Projects/ELEC60011-fpga/system_template_de1_soc/software/hello_world2_bsp/\libhal_bsp.a(alt_icache_flush.o)
 .debug_frame   0x0000261c       0x5c c:/Users/Galileo/Projects/ELEC60011-fpga/system_template_de1_soc/software/hello_world2_bsp/\libhal_bsp.a(alt_instruction_exception_entry.o)
 .debug_frame   0x00002678       0x20 c:/intelfpga_lite/23.1std/nios2eds/bin/gnu/h-x86_64-mingw32/bin/../lib/gcc/nios2-elf/12.3.1/../../../../../H-x86_64-mingw32/nios2-elf/lib/mhw-mulx\libc.a(libc_a-memcmp.o)

.debug_str      0x00000000     0x291f
 *(.debug_str)
 .debug_str     0x00000000       0x81 c:/Users/Galileo/Projects/ELEC60011-fpga/system_template_de1_soc/software/hello_world2_bsp//obj/HAL/src/crt0.o
                                 0x88 (size before relaxing)
 .debug_str     0x00000081      0x125 obj/default/hello_world.o
                                0x181 (size before relaxing)
 .debug_str     0x000001a6       0xd7 c:/intelfpga_lite/23.1std/nios2eds/bin/gnu/h-x86_64-mingw32/bin/../lib/gcc/nios2-elf/12.3.1/../../../../../H-x86_64-mingw32/nios2-elf/lib/mhw-mulx\libm.a(libm_a-sf_cos.o)
                                0x184 (size before relaxing)
 .debug_str     0x0000027d       0x21 c:/intelfpga_lite/23.1std/nios2eds/bin/gnu/h-x86_64-mingw32/bin/../lib/gcc/nios2-elf/12.3.1/../../../../../H-x86_64-mingw32/nios2-elf/lib/mhw-mulx\libm.a(libm_a-kf_cos.o)
                                0x17e (size before relaxing)
 .debug_str     0x0000029e        0x5 c:/intelfpga_lite/23.1std/nios2eds/bin/gnu/h-x86_64-mingw32/bin/../lib/gcc/nios2-elf/12.3.1/../../../../../H-x86_64-mingw32/nios2-elf/lib/mhw-mulx\libm.a(libm_a-kf_sin.o)
                                0x17e (size before relaxing)
 .debug_str     0x000002a3       0x8e c:/intelfpga_lite/23.1std/nios2eds/bin/gnu/h-x86_64-mingw32/bin/../lib/gcc/nios2-elf/12.3.1/../../../../../H-x86_64-mingw32/nios2-elf/lib/mhw-mulx\libm.a(libm_a-ef_rem_pio2.o)
                                0x217 (size before relaxing)
 .debug_str     0x00000331      0x147 c:/intelfpga_lite/23.1std/nios2eds/bin/gnu/h-x86_64-mingw32/bin/../lib/gcc/nios2-elf/12.3.1/../../../../../H-x86_64-mingw32/nios2-elf/lib/mhw-mulx\libm.a(libm_a-sf_fabs.o)
 .debug_str     0x00000331       0x40 c:/intelfpga_lite/23.1std/nios2eds/bin/gnu/h-x86_64-mingw32/bin/../lib/gcc/nios2-elf/12.3.1/../../../../../H-x86_64-mingw32/nios2-elf/lib/mhw-mulx\libm.a(libm_a-kf_rem_pio2.o)
                                0x1b0 (size before relaxing)
 .debug_str     0x00000371        0xd c:/intelfpga_lite/23.1std/nios2eds/bin/gnu/h-x86_64-mingw32/bin/../lib/gcc/nios2-elf/12.3.1/../../../../../H-x86_64-mingw32/nios2-elf/lib/mhw-mulx\libm.a(libm_a-sf_floor.o)
                                0x168 (size before relaxing)
 .debug_str     0x0000037e       0x8d c:/intelfpga_lite/23.1std/nios2eds/bin/gnu/h-x86_64-mingw32/bin/../lib/gcc/nios2-elf/12.3.1/../../../../../H-x86_64-mingw32/nios2-elf/lib/mhw-mulx\libm.a(libm_a-sf_scalbn.o)
                                0x193 (size before relaxing)
 .debug_str     0x0000040b      0x1a0 c:/intelfpga_lite/23.1std/nios2eds/bin/gnu/h-x86_64-mingw32/bin/../lib/gcc/nios2-elf/12.3.1/mhw-mulx\libgcc.a(addsf3.o)
                                0x238 (size before relaxing)
 .debug_str     0x000005ab       0xfd c:/intelfpga_lite/23.1std/nios2eds/bin/gnu/h-x86_64-mingw32/bin/../lib/gcc/nios2-elf/12.3.1/mhw-mulx\libgcc.a(divsf3.o)
                                0x25d (size before relaxing)
 .debug_str     0x000006a8       0x11 c:/intelfpga_lite/23.1std/nios2eds/bin/gnu/h-x86_64-mingw32/bin/../lib/gcc/nios2-elf/12.3.1/mhw-mulx\libgcc.a(eqsf2.o)
                                0x15d (size before relaxing)
 .debug_str     0x000006b9       0x24 c:/intelfpga_lite/23.1std/nios2eds/bin/gnu/h-x86_64-mingw32/bin/../lib/gcc/nios2-elf/12.3.1/mhw-mulx\libgcc.a(gesf2.o)
                                0x181 (size before relaxing)
 .debug_str     0x000006dd       0x62 c:/intelfpga_lite/23.1std/nios2eds/bin/gnu/h-x86_64-mingw32/bin/../lib/gcc/nios2-elf/12.3.1/mhw-mulx\libgcc.a(mulsf3.o)
                                0x25d (size before relaxing)
 .debug_str     0x0000073f      0x238 c:/intelfpga_lite/23.1std/nios2eds/bin/gnu/h-x86_64-mingw32/bin/../lib/gcc/nios2-elf/12.3.1/mhw-mulx\libgcc.a(subsf3.o)
 .debug_str     0x0000073f       0x1b c:/intelfpga_lite/23.1std/nios2eds/bin/gnu/h-x86_64-mingw32/bin/../lib/gcc/nios2-elf/12.3.1/mhw-mulx\libgcc.a(fixsfsi.o)
                                0x170 (size before relaxing)
 .debug_str     0x0000075a       0x2d c:/intelfpga_lite/23.1std/nios2eds/bin/gnu/h-x86_64-mingw32/bin/../lib/gcc/nios2-elf/12.3.1/mhw-mulx\libgcc.a(floatsisf.o)
                                0x200 (size before relaxing)
 .debug_str     0x00000787       0x34 c:/intelfpga_lite/23.1std/nios2eds/bin/gnu/h-x86_64-mingw32/bin/../lib/gcc/nios2-elf/12.3.1/mhw-mulx\libgcc.a(_clzsi2.o)
                                0x15b (size before relaxing)
 .debug_str     0x000007bb      0x13e c:/intelfpga_lite/23.1std/nios2eds/bin/gnu/h-x86_64-mingw32/bin/../lib/gcc/nios2-elf/12.3.1/mhw-mulx\libgcc.a(_clz.o)
 .debug_str     0x000007bb      0x31d c:/intelfpga_lite/23.1std/nios2eds/bin/gnu/h-x86_64-mingw32/bin/../lib/gcc/nios2-elf/12.3.1/../../../../../H-x86_64-mingw32/nios2-elf/lib/mhw-mulx\libc.a(libc_a-rand.o)
                                0x434 (size before relaxing)
 .debug_str     0x00000ad8       0x56 c:/intelfpga_lite/23.1std/nios2eds/bin/gnu/h-x86_64-mingw32/bin/../lib/gcc/nios2-elf/12.3.1/../../../../../H-x86_64-mingw32/nios2-elf/lib/mhw-mulx\libc.a(libc_a-printf.o)
                                0x488 (size before relaxing)
 .debug_str     0x00000b2e       0x75 c:/intelfpga_lite/23.1std/nios2eds/bin/gnu/h-x86_64-mingw32/bin/../lib/gcc/nios2-elf/12.3.1/../../../../../H-x86_64-mingw32/nios2-elf/lib/mhw-mulx\libc.a(libc_a-puts.o)
                                0x4a6 (size before relaxing)
 .debug_str     0x00000ba3        0xd c:/intelfpga_lite/23.1std/nios2eds/bin/gnu/h-x86_64-mingw32/bin/../lib/gcc/nios2-elf/12.3.1/../../../../../H-x86_64-mingw32/nios2-elf/lib/mhw-mulx\libc.a(libc_a-strlen.o)
                                0x12a (size before relaxing)
 .debug_str     0x00000bb0       0x12 c:/intelfpga_lite/23.1std/nios2eds/bin/gnu/h-x86_64-mingw32/bin/../lib/gcc/nios2-elf/12.3.1/../../../../../H-x86_64-mingw32/nios2-elf/lib/mhw-mulx\libc.a(libc_a-impure.o)
                                0x430 (size before relaxing)
 .debug_str     0x00000bc2      0x2ea c:/intelfpga_lite/23.1std/nios2eds/bin/gnu/h-x86_64-mingw32/bin/../lib/gcc/nios2-elf/12.3.1/../../../../../H-x86_64-mingw32/nios2-elf/lib/mhw-mulx\libc.a(libc_a-vfprintf.o)
                                0x8ce (size before relaxing)
 .debug_str     0x00000eac       0x37 c:/intelfpga_lite/23.1std/nios2eds/bin/gnu/h-x86_64-mingw32/bin/../lib/gcc/nios2-elf/12.3.1/../../../../../H-x86_64-mingw32/nios2-elf/lib/mhw-mulx\libc.a(libc_a-vfiprintf.o)
                                0x7f9 (size before relaxing)
 .debug_str     0x00000ee3       0x4b c:/intelfpga_lite/23.1std/nios2eds/bin/gnu/h-x86_64-mingw32/bin/../lib/gcc/nios2-elf/12.3.1/../../../../../H-x86_64-mingw32/nios2-elf/lib/mhw-mulx\libc.a(libc_a-fflush.o)
                                0x4b2 (size before relaxing)
 .debug_str     0x00000f2e      0x1a6 c:/intelfpga_lite/23.1std/nios2eds/bin/gnu/h-x86_64-mingw32/bin/../lib/gcc/nios2-elf/12.3.1/../../../../../H-x86_64-mingw32/nios2-elf/lib/mhw-mulx\libc.a(libc_a-findfp.o)
                                0x633 (size before relaxing)
 .debug_str     0x000010d4       0x38 c:/intelfpga_lite/23.1std/nios2eds/bin/gnu/h-x86_64-mingw32/bin/../lib/gcc/nios2-elf/12.3.1/../../../../../H-x86_64-mingw32/nios2-elf/lib/mhw-mulx\libc.a(libc_a-fvwrite.o)
                                0x4d7 (size before relaxing)
 .debug_str     0x0000110c       0x38 c:/intelfpga_lite/23.1std/nios2eds/bin/gnu/h-x86_64-mingw32/bin/../lib/gcc/nios2-elf/12.3.1/../../../../../H-x86_64-mingw32/nios2-elf/lib/mhw-mulx\libc.a(libc_a-fwalk.o)
                                0x43c (size before relaxing)
 .debug_str     0x0000110c       0x3e c:/intelfpga_lite/23.1std/nios2eds/bin/gnu/h-x86_64-mingw32/bin/../lib/gcc/nios2-elf/12.3.1/../../../../../H-x86_64-mingw32/nios2-elf/lib/mhw-mulx\libc.a(libc_a-stdio.o)
                                0x499 (size before relaxing)
 .debug_str     0x0000114a        0xd c:/intelfpga_lite/23.1std/nios2eds/bin/gnu/h-x86_64-mingw32/bin/../lib/gcc/nios2-elf/12.3.1/../../../../../H-x86_64-mingw32/nios2-elf/lib/mhw-mulx\libc.a(libc_a-wsetup.o)
                                0x45c (size before relaxing)
 .debug_str     0x00001157       0x32 c:/intelfpga_lite/23.1std/nios2eds/bin/gnu/h-x86_64-mingw32/bin/../lib/gcc/nios2-elf/12.3.1/../../../../../H-x86_64-mingw32/nios2-elf/lib/mhw-mulx\libc.a(libc_a-fputwc.o)
                                0x49d (size before relaxing)
 .debug_str     0x00001189        0xe c:/intelfpga_lite/23.1std/nios2eds/bin/gnu/h-x86_64-mingw32/bin/../lib/gcc/nios2-elf/12.3.1/../../../../../H-x86_64-mingw32/nios2-elf/lib/mhw-mulx\libc.a(libc_a-memchr.o)
                                0x131 (size before relaxing)
 .debug_str     0x00001197       0x27 c:/intelfpga_lite/23.1std/nios2eds/bin/gnu/h-x86_64-mingw32/bin/../lib/gcc/nios2-elf/12.3.1/../../../../../H-x86_64-mingw32/nios2-elf/lib/mhw-mulx\libc.a(libc_a-memcpy.o)
                                0x13e (size before relaxing)
 .debug_str     0x000011be        0x9 c:/intelfpga_lite/23.1std/nios2eds/bin/gnu/h-x86_64-mingw32/bin/../lib/gcc/nios2-elf/12.3.1/../../../../../H-x86_64-mingw32/nios2-elf/lib/mhw-mulx\libc.a(libc_a-memmove.o)
                                0x149 (size before relaxing)
 .debug_str     0x000011c7        0x7 c:/intelfpga_lite/23.1std/nios2eds/bin/gnu/h-x86_64-mingw32/bin/../lib/gcc/nios2-elf/12.3.1/../../../../../H-x86_64-mingw32/nios2-elf/lib/mhw-mulx\libc.a(libc_a-memset.o)
                                0x12b (size before relaxing)
 .debug_str     0x000011ce       0x93 c:/intelfpga_lite/23.1std/nios2eds/bin/gnu/h-x86_64-mingw32/bin/../lib/gcc/nios2-elf/12.3.1/../../../../../H-x86_64-mingw32/nios2-elf/lib/mhw-mulx\libc.a(libc_a-locale.o)
                                0x6aa (size before relaxing)
 .debug_str     0x00001261       0x29 c:/intelfpga_lite/23.1std/nios2eds/bin/gnu/h-x86_64-mingw32/bin/../lib/gcc/nios2-elf/12.3.1/../../../../../H-x86_64-mingw32/nios2-elf/lib/mhw-mulx\libc.a(libc_a-localeconv.o)
                                0x66c (size before relaxing)
 .debug_str     0x0000128a       0x29 c:/intelfpga_lite/23.1std/nios2eds/bin/gnu/h-x86_64-mingw32/bin/../lib/gcc/nios2-elf/12.3.1/../../../../../H-x86_64-mingw32/nios2-elf/lib/mhw-mulx\libc.a(libc_a-closer.o)
                                0x427 (size before relaxing)
 .debug_str     0x0000128a       0x1f c:/intelfpga_lite/23.1std/nios2eds/bin/gnu/h-x86_64-mingw32/bin/../lib/gcc/nios2-elf/12.3.1/../../../../../H-x86_64-mingw32/nios2-elf/lib/mhw-mulx\libc.a(libc_a-reent.o)
                                0x44b (size before relaxing)
 .debug_str     0x000012a9        0xe c:/intelfpga_lite/23.1std/nios2eds/bin/gnu/h-x86_64-mingw32/bin/../lib/gcc/nios2-elf/12.3.1/../../../../../H-x86_64-mingw32/nios2-elf/lib/mhw-mulx\libc.a(libc_a-lseekr.o)
                                0x43c (size before relaxing)
 .debug_str     0x000012b7        0xe c:/intelfpga_lite/23.1std/nios2eds/bin/gnu/h-x86_64-mingw32/bin/../lib/gcc/nios2-elf/12.3.1/../../../../../H-x86_64-mingw32/nios2-elf/lib/mhw-mulx\libc.a(libc_a-readr.o)
                                0x435 (size before relaxing)
 .debug_str     0x000012b7        0xe c:/intelfpga_lite/23.1std/nios2eds/bin/gnu/h-x86_64-mingw32/bin/../lib/gcc/nios2-elf/12.3.1/../../../../../H-x86_64-mingw32/nios2-elf/lib/mhw-mulx\libc.a(libc_a-writer.o)
                                0x437 (size before relaxing)
 .debug_str     0x000012b7      0x186 c:/intelfpga_lite/23.1std/nios2eds/bin/gnu/h-x86_64-mingw32/bin/../lib/gcc/nios2-elf/12.3.1/../../../../../H-x86_64-mingw32/nios2-elf/lib/mhw-mulx\libc.a(libc_a-dtoa.o)
                                0x7e8 (size before relaxing)
 .debug_str     0x0000143d       0x11 c:/intelfpga_lite/23.1std/nios2eds/bin/gnu/h-x86_64-mingw32/bin/../lib/gcc/nios2-elf/12.3.1/../../../../../H-x86_64-mingw32/nios2-elf/lib/mhw-mulx\libc.a(libc_a-exit.o)
                                0x13f (size before relaxing)
 .debug_str     0x0000144e      0x147 c:/intelfpga_lite/23.1std/nios2eds/bin/gnu/h-x86_64-mingw32/bin/../lib/gcc/nios2-elf/12.3.1/../../../../../H-x86_64-mingw32/nios2-elf/lib/mhw-mulx\libc.a(libc_a-freer.o)
                                0x593 (size before relaxing)
 .debug_str     0x00001595       0xe5 c:/intelfpga_lite/23.1std/nios2eds/bin/gnu/h-x86_64-mingw32/bin/../lib/gcc/nios2-elf/12.3.1/../../../../../H-x86_64-mingw32/nios2-elf/lib/mhw-mulx\libc.a(libc_a-mallocr.o)
                                0x649 (size before relaxing)
 .debug_str     0x0000167a       0x10 c:/intelfpga_lite/23.1std/nios2eds/bin/gnu/h-x86_64-mingw32/bin/../lib/gcc/nios2-elf/12.3.1/../../../../../H-x86_64-mingw32/nios2-elf/lib/mhw-mulx\libc.a(libc_a-mbtowc_r.o)
                                0x64e (size before relaxing)
 .debug_str     0x0000168a       0x6b c:/intelfpga_lite/23.1std/nios2eds/bin/gnu/h-x86_64-mingw32/bin/../lib/gcc/nios2-elf/12.3.1/../../../../../H-x86_64-mingw32/nios2-elf/lib/mhw-mulx\libc.a(libc_a-mprec.o)
                                0x742 (size before relaxing)
 .debug_str     0x000016f5       0x4e c:/intelfpga_lite/23.1std/nios2eds/bin/gnu/h-x86_64-mingw32/bin/../lib/gcc/nios2-elf/12.3.1/../../../../../H-x86_64-mingw32/nios2-elf/lib/mhw-mulx\libc.a(libc_a-reallocr.o)
                                0x51b (size before relaxing)
 .debug_str     0x00001743       0x11 c:/intelfpga_lite/23.1std/nios2eds/bin/gnu/h-x86_64-mingw32/bin/../lib/gcc/nios2-elf/12.3.1/../../../../../H-x86_64-mingw32/nios2-elf/lib/mhw-mulx\libc.a(libc_a-wctomb_r.o)
                                0x655 (size before relaxing)
 .debug_str     0x00001754        0xf c:/intelfpga_lite/23.1std/nios2eds/bin/gnu/h-x86_64-mingw32/bin/../lib/gcc/nios2-elf/12.3.1/../../../../../H-x86_64-mingw32/nios2-elf/lib/mhw-mulx\libc.a(libc_a-wcrtomb.o)
                                0x655 (size before relaxing)
 .debug_str     0x00001763        0x8 c:/intelfpga_lite/23.1std/nios2eds/bin/gnu/h-x86_64-mingw32/bin/../lib/gcc/nios2-elf/12.3.1/../../../../../H-x86_64-mingw32/nios2-elf/lib/mhw-mulx\libc.a(libc_a-ctype_.o)
                                0x11a (size before relaxing)
 .debug_str     0x0000176b        0x7 c:/intelfpga_lite/23.1std/nios2eds/bin/gnu/h-x86_64-mingw32/bin/../lib/gcc/nios2-elf/12.3.1/../../../../../H-x86_64-mingw32/nios2-elf/lib/mhw-mulx\libc.a(libc_a-fclose.o)
                                0x48a (size before relaxing)
 .debug_str     0x00001772      0x125 c:/intelfpga_lite/23.1std/nios2eds/bin/gnu/h-x86_64-mingw32/bin/../lib/gcc/nios2-elf/12.3.1/../../../../../H-x86_64-mingw32/nios2-elf/lib/mhw-mulx\libc.a(libc_a-makebuf.o)
                                0x5bd (size before relaxing)
 .debug_str     0x00001897        0x8 c:/intelfpga_lite/23.1std/nios2eds/bin/gnu/h-x86_64-mingw32/bin/../lib/gcc/nios2-elf/12.3.1/../../../../../H-x86_64-mingw32/nios2-elf/lib/mhw-mulx\libc.a(libc_a-wbuf.o)
                                0x463 (size before relaxing)
 .debug_str     0x0000189f      0x110 c:/intelfpga_lite/23.1std/nios2eds/bin/gnu/h-x86_64-mingw32/bin/../lib/gcc/nios2-elf/12.3.1/../../../../../H-x86_64-mingw32/nios2-elf/lib/mhw-mulx\libc.a(libc_a-strcmp.o)
 .debug_str     0x0000189f        0xc c:/intelfpga_lite/23.1std/nios2eds/bin/gnu/h-x86_64-mingw32/bin/../lib/gcc/nios2-elf/12.3.1/../../../../../H-x86_64-mingw32/nios2-elf/lib/mhw-mulx\libc.a(libc_a-fstatr.o)
                                0x572 (size before relaxing)
 .debug_str     0x000018ab        0x7 c:/intelfpga_lite/23.1std/nios2eds/bin/gnu/h-x86_64-mingw32/bin/../lib/gcc/nios2-elf/12.3.1/../../../../../H-x86_64-mingw32/nios2-elf/lib/mhw-mulx\libc.a(libc_a-isattyr.o)
                                0x429 (size before relaxing)
 .debug_str     0x000018b2        0xa c:/intelfpga_lite/23.1std/nios2eds/bin/gnu/h-x86_64-mingw32/bin/../lib/gcc/nios2-elf/12.3.1/../../../../../H-x86_64-mingw32/nios2-elf/lib/mhw-mulx\libc.a(libc_a-sbrkr.o)
                                0x434 (size before relaxing)
 .debug_str     0x000018bc       0x6d c:/intelfpga_lite/23.1std/nios2eds/bin/gnu/h-x86_64-mingw32/bin/../lib/gcc/nios2-elf/12.3.1/../../../../../H-x86_64-mingw32/nios2-elf/lib/mhw-mulx\libc.a(libc_a-__call_atexit.o)
                                0x1a7 (size before relaxing)
 .debug_str     0x00001929       0x28 c:/intelfpga_lite/23.1std/nios2eds/bin/gnu/h-x86_64-mingw32/bin/../lib/gcc/nios2-elf/12.3.1/../../../../../H-x86_64-mingw32/nios2-elf/lib/mhw-mulx\libc.a(libc_a-assert.o)
                                0x463 (size before relaxing)
 .debug_str     0x00001951       0x17 c:/intelfpga_lite/23.1std/nios2eds/bin/gnu/h-x86_64-mingw32/bin/../lib/gcc/nios2-elf/12.3.1/../../../../../H-x86_64-mingw32/nios2-elf/lib/mhw-mulx\libc.a(libc_a-callocr.o)
                                0x47b (size before relaxing)
 .debug_str     0x00001968       0x19 c:/intelfpga_lite/23.1std/nios2eds/bin/gnu/h-x86_64-mingw32/bin/../lib/gcc/nios2-elf/12.3.1/../../../../../H-x86_64-mingw32/nios2-elf/lib/mhw-mulx\libc.a(libc_a-fiprintf.o)
                                0x46e (size before relaxing)
 .debug_str     0x00001981      0x46a c:/intelfpga_lite/23.1std/nios2eds/bin/gnu/h-x86_64-mingw32/bin/../lib/gcc/nios2-elf/12.3.1/../../../../../H-x86_64-mingw32/nios2-elf/lib/mhw-mulx\libc.a(libc_a-vfiprintfr_1.o)
 .debug_str     0x00001981      0x426 c:/intelfpga_lite/23.1std/nios2eds/bin/gnu/h-x86_64-mingw32/bin/../lib/gcc/nios2-elf/12.3.1/../../../../../H-x86_64-mingw32/nios2-elf/lib/mhw-mulx\libc.a(libc_a-errno.o)
 .debug_str     0x00001981        0x6 c:/intelfpga_lite/23.1std/nios2eds/bin/gnu/h-x86_64-mingw32/bin/../lib/gcc/nios2-elf/12.3.1/../../../../../H-x86_64-mingw32/nios2-elf/lib/mhw-mulx\libc.a(libc_a-abort.o)
                                0x11b (size before relaxing)
 .debug_str     0x00001987       0x66 c:/intelfpga_lite/23.1std/nios2eds/bin/gnu/h-x86_64-mingw32/bin/../lib/gcc/nios2-elf/12.3.1/../../../../../H-x86_64-mingw32/nios2-elf/lib/mhw-mulx\libc.a(libc_a-signal.o)
                                0x4b1 (size before relaxing)
 .debug_str     0x000019ed       0x14 c:/intelfpga_lite/23.1std/nios2eds/bin/gnu/h-x86_64-mingw32/bin/../lib/gcc/nios2-elf/12.3.1/../../../../../H-x86_64-mingw32/nios2-elf/lib/mhw-mulx\libc.a(libc_a-signalr.o)
                                0x444 (size before relaxing)
 .debug_str     0x00001a01       0xf9 c:/intelfpga_lite/23.1std/nios2eds/bin/gnu/h-x86_64-mingw32/bin/../lib/gcc/nios2-elf/12.3.1/mhw-mulx\libgcc.a(_udivdi3.o)
                                0x20b (size before relaxing)
 .debug_str     0x00001afa      0x20b c:/intelfpga_lite/23.1std/nios2eds/bin/gnu/h-x86_64-mingw32/bin/../lib/gcc/nios2-elf/12.3.1/mhw-mulx\libgcc.a(_umoddi3.o)
 .debug_str     0x00001afa       0x1f c:/intelfpga_lite/23.1std/nios2eds/bin/gnu/h-x86_64-mingw32/bin/../lib/gcc/nios2-elf/12.3.1/mhw-mulx\libgcc.a(lib2-divmod.o)
                                0x120 (size before relaxing)
 .debug_str     0x00001b19       0x91 c:/intelfpga_lite/23.1std/nios2eds/bin/gnu/h-x86_64-mingw32/bin/../lib/gcc/nios2-elf/12.3.1/mhw-mulx\libgcc.a(adddf3.o)
                                0x275 (size before relaxing)
 .debug_str     0x00001baa       0xdf c:/intelfpga_lite/23.1std/nios2eds/bin/gnu/h-x86_64-mingw32/bin/../lib/gcc/nios2-elf/12.3.1/mhw-mulx\libgcc.a(divdf3.o)
                                0x34b (size before relaxing)
 .debug_str     0x00001c89      0x179 c:/intelfpga_lite/23.1std/nios2eds/bin/gnu/h-x86_64-mingw32/bin/../lib/gcc/nios2-elf/12.3.1/mhw-mulx\libgcc.a(eqdf2.o)
 .debug_str     0x00001c89        0x8 c:/intelfpga_lite/23.1std/nios2eds/bin/gnu/h-x86_64-mingw32/bin/../lib/gcc/nios2-elf/12.3.1/mhw-mulx\libgcc.a(gedf2.o)
                                0x19d (size before relaxing)
 .debug_str     0x00001c91      0x19d c:/intelfpga_lite/23.1std/nios2eds/bin/gnu/h-x86_64-mingw32/bin/../lib/gcc/nios2-elf/12.3.1/mhw-mulx\libgcc.a(ledf2.o)
 .debug_str     0x00001c91      0x125 c:/intelfpga_lite/23.1std/nios2eds/bin/gnu/h-x86_64-mingw32/bin/../lib/gcc/nios2-elf/12.3.1/mhw-mulx\libgcc.a(muldf3.o)
                                0x38f (size before relaxing)
 .debug_str     0x00001db6      0x275 c:/intelfpga_lite/23.1std/nios2eds/bin/gnu/h-x86_64-mingw32/bin/../lib/gcc/nios2-elf/12.3.1/mhw-mulx\libgcc.a(subdf3.o)
 .debug_str     0x00001db6      0x17c c:/intelfpga_lite/23.1std/nios2eds/bin/gnu/h-x86_64-mingw32/bin/../lib/gcc/nios2-elf/12.3.1/mhw-mulx\libgcc.a(unorddf2.o)
 .debug_str     0x00001db6      0x182 c:/intelfpga_lite/23.1std/nios2eds/bin/gnu/h-x86_64-mingw32/bin/../lib/gcc/nios2-elf/12.3.1/mhw-mulx\libgcc.a(fixdfsi.o)
 .debug_str     0x00001db6      0x224 c:/intelfpga_lite/23.1std/nios2eds/bin/gnu/h-x86_64-mingw32/bin/../lib/gcc/nios2-elf/12.3.1/mhw-mulx\libgcc.a(floatsidf.o)
 .debug_str     0x00001db6      0x21f c:/intelfpga_lite/23.1std/nios2eds/bin/gnu/h-x86_64-mingw32/bin/../lib/gcc/nios2-elf/12.3.1/mhw-mulx\libgcc.a(floatunsidf.o)
 .debug_str     0x00001db6       0xa5 c:/Users/Galileo/Projects/ELEC60011-fpga/system_template_de1_soc/software/hello_world2_bsp/\libhal_bsp.a(alt_close.o)
                                0x1ba (size before relaxing)
 .debug_str     0x00001e5b       0x4b c:/Users/Galileo/Projects/ELEC60011-fpga/system_template_de1_soc/software/hello_world2_bsp/\libhal_bsp.a(alt_dev.o)
                                0x313 (size before relaxing)
 .debug_str     0x00001ea6       0xf4 c:/Users/Galileo/Projects/ELEC60011-fpga/system_template_de1_soc/software/hello_world2_bsp/\libhal_bsp.a(alt_errno.o)
 .debug_str     0x00001ea6       0x17 c:/Users/Galileo/Projects/ELEC60011-fpga/system_template_de1_soc/software/hello_world2_bsp/\libhal_bsp.a(alt_exit.o)
                                 0xff (size before relaxing)
 .debug_str     0x00001ebd      0x2eb c:/Users/Galileo/Projects/ELEC60011-fpga/system_template_de1_soc/software/hello_world2_bsp/\libhal_bsp.a(alt_fstat.o)
 .debug_str     0x00001ebd       0x54 c:/Users/Galileo/Projects/ELEC60011-fpga/system_template_de1_soc/software/hello_world2_bsp/\libhal_bsp.a(alt_getpid.o)
 .debug_str     0x00001ebd      0x2f2 c:/Users/Galileo/Projects/ELEC60011-fpga/system_template_de1_soc/software/hello_world2_bsp/\libhal_bsp.a(alt_isatty.o)
 .debug_str     0x00001ebd        0x7 c:/Users/Galileo/Projects/ELEC60011-fpga/system_template_de1_soc/software/hello_world2_bsp/\libhal_bsp.a(alt_kill.o)
                                0x112 (size before relaxing)
 .debug_str     0x00001ec4      0x108 c:/Users/Galileo/Projects/ELEC60011-fpga/system_template_de1_soc/software/hello_world2_bsp/\libhal_bsp.a(alt_load.o)
                                0x1ea (size before relaxing)
 .debug_str     0x00001fcc      0x1b9 c:/Users/Galileo/Projects/ELEC60011-fpga/system_template_de1_soc/software/hello_world2_bsp/\libhal_bsp.a(alt_lseek.o)
 .debug_str     0x00001fcc       0x5b c:/Users/Galileo/Projects/ELEC60011-fpga/system_template_de1_soc/software/hello_world2_bsp/\libhal_bsp.a(alt_main.o)
                                0x154 (size before relaxing)
 .debug_str     0x00002027      0x409 c:/Users/Galileo/Projects/ELEC60011-fpga/system_template_de1_soc/software/hello_world2_bsp/\libhal_bsp.a(alt_malloc_lock.o)
 .debug_str     0x00002027      0x2f7 c:/Users/Galileo/Projects/ELEC60011-fpga/system_template_de1_soc/software/hello_world2_bsp/\libhal_bsp.a(alt_read.o)
 .debug_str     0x00002027      0x177 c:/Users/Galileo/Projects/ELEC60011-fpga/system_template_de1_soc/software/hello_world2_bsp/\libhal_bsp.a(alt_release_fd.o)
 .debug_str     0x00002027       0x6f c:/Users/Galileo/Projects/ELEC60011-fpga/system_template_de1_soc/software/hello_world2_bsp/\libhal_bsp.a(alt_sbrk.o)
                                0x16c (size before relaxing)
 .debug_str     0x00002096       0x38 c:/Users/Galileo/Projects/ELEC60011-fpga/system_template_de1_soc/software/hello_world2_bsp/\libhal_bsp.a(alt_times.o)
                                0x189 (size before relaxing)
 .debug_str     0x000020ce      0x2f7 c:/Users/Galileo/Projects/ELEC60011-fpga/system_template_de1_soc/software/hello_world2_bsp/\libhal_bsp.a(alt_write.o)
 .debug_str     0x000020ce      0x144 c:/Users/Galileo/Projects/ELEC60011-fpga/system_template_de1_soc/software/hello_world2_bsp/\libhal_bsp.a(alt_sys_init.o)
                                0x2f3 (size before relaxing)
 .debug_str     0x00002212       0x3b c:/Users/Galileo/Projects/ELEC60011-fpga/system_template_de1_soc/software/hello_world2_bsp/\libhal_bsp.a(altera_avalon_jtag_uart_fd.o)
                                0x281 (size before relaxing)
 .debug_str     0x0000224d      0x161 c:/Users/Galileo/Projects/ELEC60011-fpga/system_template_de1_soc/software/hello_world2_bsp/\libhal_bsp.a(altera_avalon_jtag_uart_read.o)
 .debug_str     0x0000224d       0x3b c:/Users/Galileo/Projects/ELEC60011-fpga/system_template_de1_soc/software/hello_world2_bsp/\libhal_bsp.a(altera_avalon_jtag_uart_write.o)
                                0x156 (size before relaxing)
 .debug_str     0x0000224d       0x70 c:/Users/Galileo/Projects/ELEC60011-fpga/system_template_de1_soc/software/hello_world2_bsp/\libhal_bsp.a(altera_avalon_timer_sc.o)
                                0x1d4 (size before relaxing)
 .debug_str     0x000022bd       0xf7 c:/Users/Galileo/Projects/ELEC60011-fpga/system_template_de1_soc/software/hello_world2_bsp/\libhal_bsp.a(alt_dcache_flush_all.o)
 .debug_str     0x000022bd       0x11 c:/Users/Galileo/Projects/ELEC60011-fpga/system_template_de1_soc/software/hello_world2_bsp/\libhal_bsp.a(alt_dev_llist_insert.o)
                                0x16e (size before relaxing)
 .debug_str     0x000022ce       0x11 c:/Users/Galileo/Projects/ELEC60011-fpga/system_template_de1_soc/software/hello_world2_bsp/\libhal_bsp.a(alt_icache_flush_all.o)
                                0x110 (size before relaxing)
 .debug_str     0x000022df       0x8d c:/Users/Galileo/Projects/ELEC60011-fpga/system_template_de1_soc/software/hello_world2_bsp/\libhal_bsp.a(alt_iic.o)
                                0x1f0 (size before relaxing)
 .debug_str     0x0000236c       0x18 c:/Users/Galileo/Projects/ELEC60011-fpga/system_template_de1_soc/software/hello_world2_bsp/\libhal_bsp.a(alt_iic_isr_register.o)
                                0x1af (size before relaxing)
 .debug_str     0x00002384       0x2c c:/Users/Galileo/Projects/ELEC60011-fpga/system_template_de1_soc/software/hello_world2_bsp/\libhal_bsp.a(alt_io_redirect.o)
                                0x31e (size before relaxing)
 .debug_str     0x000023b0       0x18 c:/Users/Galileo/Projects/ELEC60011-fpga/system_template_de1_soc/software/hello_world2_bsp/\libhal_bsp.a(alt_irq_entry.o)
                                 0x82 (size before relaxing)
 .debug_str     0x000023c8       0x20 c:/Users/Galileo/Projects/ELEC60011-fpga/system_template_de1_soc/software/hello_world2_bsp/\libhal_bsp.a(alt_irq_handler.o)
                                0x13e (size before relaxing)
 .debug_str     0x000023e8       0x12 c:/Users/Galileo/Projects/ELEC60011-fpga/system_template_de1_soc/software/hello_world2_bsp/\libhal_bsp.a(alt_irq_vars.o)
                                 0xed (size before relaxing)
 .debug_str     0x000023fa       0x3c c:/Users/Galileo/Projects/ELEC60011-fpga/system_template_de1_soc/software/hello_world2_bsp/\libhal_bsp.a(alt_open.o)
                                0x22e (size before relaxing)
 .debug_str     0x00002436       0x53 c:/Users/Galileo/Projects/ELEC60011-fpga/system_template_de1_soc/software/hello_world2_bsp/\libhal_bsp.a(alt_tick.o)
                                0x1f8 (size before relaxing)
 .debug_str     0x00002489       0xfd c:/Users/Galileo/Projects/ELEC60011-fpga/system_template_de1_soc/software/hello_world2_bsp/\libhal_bsp.a(altera_nios2_gen2_irq.o)
 .debug_str     0x00002489       0x1e c:/Users/Galileo/Projects/ELEC60011-fpga/system_template_de1_soc/software/hello_world2_bsp/\libhal_bsp.a(alt_exception_entry.o)
                                 0x88 (size before relaxing)
 .debug_str     0x000024a7        0x7 c:/Users/Galileo/Projects/ELEC60011-fpga/system_template_de1_soc/software/hello_world2_bsp/\libhal_bsp.a(alt_find_dev.o)
                                0x19e (size before relaxing)
 .debug_str     0x000024ae      0x1ab c:/Users/Galileo/Projects/ELEC60011-fpga/system_template_de1_soc/software/hello_world2_bsp/\libhal_bsp.a(alt_find_file.o)
 .debug_str     0x000024ae       0x10 c:/Users/Galileo/Projects/ELEC60011-fpga/system_template_de1_soc/software/hello_world2_bsp/\libhal_bsp.a(alt_get_fd.o)
                                0x1bb (size before relaxing)
 .debug_str     0x000024be      0x101 c:/Users/Galileo/Projects/ELEC60011-fpga/system_template_de1_soc/software/hello_world2_bsp/\libhal_bsp.a(alt_icache_flush.o)
 .debug_str     0x000024be      0x461 c:/Users/Galileo/Projects/ELEC60011-fpga/system_template_de1_soc/software/hello_world2_bsp/\libhal_bsp.a(alt_instruction_exception_entry.o)
                                0x540 (size before relaxing)
 .debug_str     0x0000291f      0x117 c:/intelfpga_lite/23.1std/nios2eds/bin/gnu/h-x86_64-mingw32/bin/../lib/gcc/nios2-elf/12.3.1/../../../../../H-x86_64-mingw32/nios2-elf/lib/mhw-mulx\libc.a(libc_a-memcmp.o)

.debug_loc
 *(.debug_loc)

.debug_macinfo
 *(.debug_macinfo)

.debug_weaknames
 *(.debug_weaknames)

.debug_funcnames
 *(.debug_funcnames)

.debug_typenames
 *(.debug_typenames)

.debug_varnames
 *(.debug_varnames)

.debug_alt_sim_info
                0x00000000       0x30
 *(.debug_alt_sim_info)
 .debug_alt_sim_info
                0x00000000       0x30 c:/Users/Galileo/Projects/ELEC60011-fpga/system_template_de1_soc/software/hello_world2_bsp//obj/HAL/src/crt0.o
                0x000df000                        __alt_data_end = 0xdf000
                0x000df000                        PROVIDE (__alt_stack_pointer = __alt_data_end)
                [!provide]                        PROVIDE (__alt_stack_limit = __alt_stack_base)
                0x00093bf8                        PROVIDE (__alt_heap_start = end)
                0x000df000                        PROVIDE (__alt_heap_limit = 0xdf000)
OUTPUT(hello_world2.elf elf32-littlenios2)
LOAD linker stubs

.debug_ranges   0x00000000       0x70
 .debug_ranges  0x00000000       0x20 c:/Users/Galileo/Projects/ELEC60011-fpga/system_template_de1_soc/software/hello_world2_bsp//obj/HAL/src/crt0.o
 .debug_ranges  0x00000020       0x28 c:/Users/Galileo/Projects/ELEC60011-fpga/system_template_de1_soc/software/hello_world2_bsp/\libhal_bsp.a(alt_irq_entry.o)
 .debug_ranges  0x00000048       0x28 c:/Users/Galileo/Projects/ELEC60011-fpga/system_template_de1_soc/software/hello_world2_bsp/\libhal_bsp.a(alt_exception_entry.o)

.debug_line_str
                0x00000000     0x2077
 .debug_line_str
                0x00000000      0x125 obj/default/hello_world.o
                                0x198 (size before relaxing)
 .debug_line_str
                0x00000125      0x1ed c:/intelfpga_lite/23.1std/nios2eds/bin/gnu/h-x86_64-mingw32/bin/../lib/gcc/nios2-elf/12.3.1/../../../../../H-x86_64-mingw32/nios2-elf/lib/mhw-mulx\libm.a(libm_a-sf_cos.o)
                                0x286 (size before relaxing)
 .debug_line_str
                0x00000312       0x37 c:/intelfpga_lite/23.1std/nios2eds/bin/gnu/h-x86_64-mingw32/bin/../lib/gcc/nios2-elf/12.3.1/../../../../../H-x86_64-mingw32/nios2-elf/lib/mhw-mulx\libm.a(libm_a-kf_cos.o)
                                0x224 (size before relaxing)
 .debug_line_str
                0x00000349       0x37 c:/intelfpga_lite/23.1std/nios2eds/bin/gnu/h-x86_64-mingw32/bin/../lib/gcc/nios2-elf/12.3.1/../../../../../H-x86_64-mingw32/nios2-elf/lib/mhw-mulx\libm.a(libm_a-kf_sin.o)
                                0x224 (size before relaxing)
 .debug_line_str
                0x00000380       0x3c c:/intelfpga_lite/23.1std/nios2eds/bin/gnu/h-x86_64-mingw32/bin/../lib/gcc/nios2-elf/12.3.1/../../../../../H-x86_64-mingw32/nios2-elf/lib/mhw-mulx\libm.a(libm_a-ef_rem_pio2.o)
                                0x295 (size before relaxing)
 .debug_line_str
                0x000003bc       0x38 c:/intelfpga_lite/23.1std/nios2eds/bin/gnu/h-x86_64-mingw32/bin/../lib/gcc/nios2-elf/12.3.1/../../../../../H-x86_64-mingw32/nios2-elf/lib/mhw-mulx\libm.a(libm_a-sf_fabs.o)
                                0x289 (size before relaxing)
 .debug_line_str
                0x000003f4       0x3c c:/intelfpga_lite/23.1std/nios2eds/bin/gnu/h-x86_64-mingw32/bin/../lib/gcc/nios2-elf/12.3.1/../../../../../H-x86_64-mingw32/nios2-elf/lib/mhw-mulx\libm.a(libm_a-kf_rem_pio2.o)
                                0x25c (size before relaxing)
 .debug_line_str
                0x00000430       0x39 c:/intelfpga_lite/23.1std/nios2eds/bin/gnu/h-x86_64-mingw32/bin/../lib/gcc/nios2-elf/12.3.1/../../../../../H-x86_64-mingw32/nios2-elf/lib/mhw-mulx\libm.a(libm_a-sf_floor.o)
                                0x28c (size before relaxing)
 .debug_line_str
                0x00000469       0x3c c:/intelfpga_lite/23.1std/nios2eds/bin/gnu/h-x86_64-mingw32/bin/../lib/gcc/nios2-elf/12.3.1/../../../../../H-x86_64-mingw32/nios2-elf/lib/mhw-mulx\libm.a(libm_a-sf_scalbn.o)
                                0x263 (size before relaxing)
 .debug_line_str
                0x000004a5       0xdd c:/intelfpga_lite/23.1std/nios2eds/bin/gnu/h-x86_64-mingw32/bin/../lib/gcc/nios2-elf/12.3.1/mhw-mulx\libgcc.a(addsf3.o)
                                0x166 (size before relaxing)
 .debug_line_str
                0x00000582       0x33 c:/intelfpga_lite/23.1std/nios2eds/bin/gnu/h-x86_64-mingw32/bin/../lib/gcc/nios2-elf/12.3.1/mhw-mulx\libgcc.a(divsf3.o)
                                0x166 (size before relaxing)
 .debug_line_str
                0x000005b5       0x32 c:/intelfpga_lite/23.1std/nios2eds/bin/gnu/h-x86_64-mingw32/bin/../lib/gcc/nios2-elf/12.3.1/mhw-mulx\libgcc.a(eqsf2.o)
                                0x163 (size before relaxing)
 .debug_line_str
                0x000005e7       0x32 c:/intelfpga_lite/23.1std/nios2eds/bin/gnu/h-x86_64-mingw32/bin/../lib/gcc/nios2-elf/12.3.1/mhw-mulx\libgcc.a(gesf2.o)
                                0x163 (size before relaxing)
 .debug_line_str
                0x00000619       0x3d c:/intelfpga_lite/23.1std/nios2eds/bin/gnu/h-x86_64-mingw32/bin/../lib/gcc/nios2-elf/12.3.1/mhw-mulx\libgcc.a(mulsf3.o)
                                0x170 (size before relaxing)
 .debug_line_str
                0x00000656       0x33 c:/intelfpga_lite/23.1std/nios2eds/bin/gnu/h-x86_64-mingw32/bin/../lib/gcc/nios2-elf/12.3.1/mhw-mulx\libgcc.a(subsf3.o)
                                0x166 (size before relaxing)
 .debug_line_str
                0x00000689       0x34 c:/intelfpga_lite/23.1std/nios2eds/bin/gnu/h-x86_64-mingw32/bin/../lib/gcc/nios2-elf/12.3.1/mhw-mulx\libgcc.a(fixsfsi.o)
                                0x173 (size before relaxing)
 .debug_line_str
                0x000006bd       0x36 c:/intelfpga_lite/23.1std/nios2eds/bin/gnu/h-x86_64-mingw32/bin/../lib/gcc/nios2-elf/12.3.1/mhw-mulx\libgcc.a(floatsisf.o)
                                0x179 (size before relaxing)
 .debug_line_str
                0x000006f3       0x58 c:/intelfpga_lite/23.1std/nios2eds/bin/gnu/h-x86_64-mingw32/bin/../lib/gcc/nios2-elf/12.3.1/mhw-mulx\libgcc.a(_clzsi2.o)
                                0x15a (size before relaxing)
 .debug_line_str
                0x0000074b      0x15a c:/intelfpga_lite/23.1std/nios2eds/bin/gnu/h-x86_64-mingw32/bin/../lib/gcc/nios2-elf/12.3.1/mhw-mulx\libgcc.a(_clz.o)
 .debug_line_str
                0x0000074b      0x1c5 c:/intelfpga_lite/23.1std/nios2eds/bin/gnu/h-x86_64-mingw32/bin/../lib/gcc/nios2-elf/12.3.1/../../../../../H-x86_64-mingw32/nios2-elf/lib/mhw-mulx\libc.a(libc_a-rand.o)
                                0x2ba (size before relaxing)
 .debug_line_str
                0x00000910       0x78 c:/intelfpga_lite/23.1std/nios2eds/bin/gnu/h-x86_64-mingw32/bin/../lib/gcc/nios2-elf/12.3.1/../../../../../H-x86_64-mingw32/nios2-elf/lib/mhw-mulx\libc.a(libc_a-printf.o)
                                0x2ce (size before relaxing)
 .debug_line_str
                0x00000988       0x49 c:/intelfpga_lite/23.1std/nios2eds/bin/gnu/h-x86_64-mingw32/bin/../lib/gcc/nios2-elf/12.3.1/../../../../../H-x86_64-mingw32/nios2-elf/lib/mhw-mulx\libc.a(libc_a-puts.o)
                                0x2d2 (size before relaxing)
 .debug_line_str
                0x000009d1       0x69 c:/intelfpga_lite/23.1std/nios2eds/bin/gnu/h-x86_64-mingw32/bin/../lib/gcc/nios2-elf/12.3.1/../../../../../H-x86_64-mingw32/nios2-elf/lib/mhw-mulx\libc.a(libc_a-strlen.o)
                                0x249 (size before relaxing)
 .debug_line_str
                0x00000a3a       0x67 c:/intelfpga_lite/23.1std/nios2eds/bin/gnu/h-x86_64-mingw32/bin/../lib/gcc/nios2-elf/12.3.1/../../../../../H-x86_64-mingw32/nios2-elf/lib/mhw-mulx\libc.a(libc_a-impure.o)
                                0x251 (size before relaxing)
 .debug_line_str
                0x00000aa1       0xa6 c:/intelfpga_lite/23.1std/nios2eds/bin/gnu/h-x86_64-mingw32/bin/../lib/gcc/nios2-elf/12.3.1/../../../../../H-x86_64-mingw32/nios2-elf/lib/mhw-mulx\libc.a(libc_a-vfprintf.o)
                                0x3e1 (size before relaxing)
 .debug_line_str
                0x00000b47       0x3b c:/intelfpga_lite/23.1std/nios2eds/bin/gnu/h-x86_64-mingw32/bin/../lib/gcc/nios2-elf/12.3.1/../../../../../H-x86_64-mingw32/nios2-elf/lib/mhw-mulx\libc.a(libc_a-vfiprintf.o)
                                0x3d8 (size before relaxing)
 .debug_line_str
                0x00000b82       0x38 c:/intelfpga_lite/23.1std/nios2eds/bin/gnu/h-x86_64-mingw32/bin/../lib/gcc/nios2-elf/12.3.1/../../../../../H-x86_64-mingw32/nios2-elf/lib/mhw-mulx\libc.a(libc_a-fflush.o)
                                0x2ce (size before relaxing)
 .debug_line_str
                0x00000bba       0x38 c:/intelfpga_lite/23.1std/nios2eds/bin/gnu/h-x86_64-mingw32/bin/../lib/gcc/nios2-elf/12.3.1/../../../../../H-x86_64-mingw32/nios2-elf/lib/mhw-mulx\libc.a(libc_a-findfp.o)
                                0x2d7 (size before relaxing)
 .debug_line_str
                0x00000bf2       0x39 c:/intelfpga_lite/23.1std/nios2eds/bin/gnu/h-x86_64-mingw32/bin/../lib/gcc/nios2-elf/12.3.1/../../../../../H-x86_64-mingw32/nios2-elf/lib/mhw-mulx\libc.a(libc_a-fvwrite.o)
                                0x2dc (size before relaxing)
 .debug_line_str
                0x00000c2b       0x37 c:/intelfpga_lite/23.1std/nios2eds/bin/gnu/h-x86_64-mingw32/bin/../lib/gcc/nios2-elf/12.3.1/../../../../../H-x86_64-mingw32/nios2-elf/lib/mhw-mulx\libc.a(libc_a-fwalk.o)
                                0x2ba (size before relaxing)
 .debug_line_str
                0x00000c62       0x37 c:/intelfpga_lite/23.1std/nios2eds/bin/gnu/h-x86_64-mingw32/bin/../lib/gcc/nios2-elf/12.3.1/../../../../../H-x86_64-mingw32/nios2-elf/lib/mhw-mulx\libc.a(libc_a-stdio.o)
                                0x2c2 (size before relaxing)
 .debug_line_str
                0x00000c99       0x38 c:/intelfpga_lite/23.1std/nios2eds/bin/gnu/h-x86_64-mingw32/bin/../lib/gcc/nios2-elf/12.3.1/../../../../../H-x86_64-mingw32/nios2-elf/lib/mhw-mulx\libc.a(libc_a-wsetup.o)
                                0x2ce (size before relaxing)
 .debug_line_str
                0x00000cd1       0x38 c:/intelfpga_lite/23.1std/nios2eds/bin/gnu/h-x86_64-mingw32/bin/../lib/gcc/nios2-elf/12.3.1/../../../../../H-x86_64-mingw32/nios2-elf/lib/mhw-mulx\libc.a(libc_a-fputwc.o)
                                0x2d6 (size before relaxing)
 .debug_line_str
                0x00000d09       0x39 c:/intelfpga_lite/23.1std/nios2eds/bin/gnu/h-x86_64-mingw32/bin/../lib/gcc/nios2-elf/12.3.1/../../../../../H-x86_64-mingw32/nios2-elf/lib/mhw-mulx\libc.a(libc_a-memchr.o)
                                0x249 (size before relaxing)
 .debug_line_str
                0x00000d42       0x39 c:/intelfpga_lite/23.1std/nios2eds/bin/gnu/h-x86_64-mingw32/bin/../lib/gcc/nios2-elf/12.3.1/../../../../../H-x86_64-mingw32/nios2-elf/lib/mhw-mulx\libc.a(libc_a-memcpy.o)
                                0x249 (size before relaxing)
 .debug_line_str
                0x00000d7b       0x3a c:/intelfpga_lite/23.1std/nios2eds/bin/gnu/h-x86_64-mingw32/bin/../lib/gcc/nios2-elf/12.3.1/../../../../../H-x86_64-mingw32/nios2-elf/lib/mhw-mulx\libc.a(libc_a-memmove.o)
                                0x24c (size before relaxing)
 .debug_line_str
                0x00000db5       0x39 c:/intelfpga_lite/23.1std/nios2eds/bin/gnu/h-x86_64-mingw32/bin/../lib/gcc/nios2-elf/12.3.1/../../../../../H-x86_64-mingw32/nios2-elf/lib/mhw-mulx\libc.a(libc_a-memset.o)
                                0x249 (size before relaxing)
 .debug_line_str
                0x00000dee       0xe5 c:/intelfpga_lite/23.1std/nios2eds/bin/gnu/h-x86_64-mingw32/bin/../lib/gcc/nios2-elf/12.3.1/../../../../../H-x86_64-mingw32/nios2-elf/lib/mhw-mulx\libc.a(libc_a-locale.o)
                                0x36a (size before relaxing)
 .debug_line_str
                0x00000ed3       0x3d c:/intelfpga_lite/23.1std/nios2eds/bin/gnu/h-x86_64-mingw32/bin/../lib/gcc/nios2-elf/12.3.1/../../../../../H-x86_64-mingw32/nios2-elf/lib/mhw-mulx\libc.a(libc_a-localeconv.o)
                                0x2e0 (size before relaxing)
 .debug_line_str
                0x00000f10       0x41 c:/intelfpga_lite/23.1std/nios2eds/bin/gnu/h-x86_64-mingw32/bin/../lib/gcc/nios2-elf/12.3.1/../../../../../H-x86_64-mingw32/nios2-elf/lib/mhw-mulx\libc.a(libc_a-closer.o)
                                0x2c6 (size before relaxing)
 .debug_line_str
                0x00000f51       0x37 c:/intelfpga_lite/23.1std/nios2eds/bin/gnu/h-x86_64-mingw32/bin/../lib/gcc/nios2-elf/12.3.1/../../../../../H-x86_64-mingw32/nios2-elf/lib/mhw-mulx\libc.a(libc_a-reent.o)
                                0x2bb (size before relaxing)
 .debug_line_str
                0x00000f88       0x38 c:/intelfpga_lite/23.1std/nios2eds/bin/gnu/h-x86_64-mingw32/bin/../lib/gcc/nios2-elf/12.3.1/../../../../../H-x86_64-mingw32/nios2-elf/lib/mhw-mulx\libc.a(libc_a-lseekr.o)
                                0x2ce (size before relaxing)
 .debug_line_str
                0x00000fc0       0x37 c:/intelfpga_lite/23.1std/nios2eds/bin/gnu/h-x86_64-mingw32/bin/../lib/gcc/nios2-elf/12.3.1/../../../../../H-x86_64-mingw32/nios2-elf/lib/mhw-mulx\libc.a(libc_a-readr.o)
                                0x2c3 (size before relaxing)
 .debug_line_str
                0x00000ff7       0x38 c:/intelfpga_lite/23.1std/nios2eds/bin/gnu/h-x86_64-mingw32/bin/../lib/gcc/nios2-elf/12.3.1/../../../../../H-x86_64-mingw32/nios2-elf/lib/mhw-mulx\libc.a(libc_a-writer.o)
                                0x2c6 (size before relaxing)
 .debug_line_str
                0x0000102f       0x82 c:/intelfpga_lite/23.1std/nios2eds/bin/gnu/h-x86_64-mingw32/bin/../lib/gcc/nios2-elf/12.3.1/../../../../../H-x86_64-mingw32/nios2-elf/lib/mhw-mulx\libc.a(libc_a-dtoa.o)
                                0x39f (size before relaxing)
 .debug_line_str
                0x000010b1       0x40 c:/intelfpga_lite/23.1std/nios2eds/bin/gnu/h-x86_64-mingw32/bin/../lib/gcc/nios2-elf/12.3.1/../../../../../H-x86_64-mingw32/nios2-elf/lib/mhw-mulx\libc.a(libc_a-exit.o)
                                0x246 (size before relaxing)
 .debug_line_str
                0x000010f1       0x43 c:/intelfpga_lite/23.1std/nios2eds/bin/gnu/h-x86_64-mingw32/bin/../lib/gcc/nios2-elf/12.3.1/../../../../../H-x86_64-mingw32/nios2-elf/lib/mhw-mulx\libc.a(libc_a-freer.o)
                                0x2bf (size before relaxing)
 .debug_line_str
                0x00001134       0x3a c:/intelfpga_lite/23.1std/nios2eds/bin/gnu/h-x86_64-mingw32/bin/../lib/gcc/nios2-elf/12.3.1/../../../../../H-x86_64-mingw32/nios2-elf/lib/mhw-mulx\libc.a(libc_a-mallocr.o)
                                0x2c3 (size before relaxing)
 .debug_line_str
                0x0000116e       0x3b c:/intelfpga_lite/23.1std/nios2eds/bin/gnu/h-x86_64-mingw32/bin/../lib/gcc/nios2-elf/12.3.1/../../../../../H-x86_64-mingw32/nios2-elf/lib/mhw-mulx\libc.a(libc_a-mbtowc_r.o)
                                0x31d (size before relaxing)
 .debug_line_str
                0x000011a9       0x38 c:/intelfpga_lite/23.1std/nios2eds/bin/gnu/h-x86_64-mingw32/bin/../lib/gcc/nios2-elf/12.3.1/../../../../../H-x86_64-mingw32/nios2-elf/lib/mhw-mulx\libc.a(libc_a-mprec.o)
                                0x3a2 (size before relaxing)
 .debug_line_str
                0x000011e1       0x3b c:/intelfpga_lite/23.1std/nios2eds/bin/gnu/h-x86_64-mingw32/bin/../lib/gcc/nios2-elf/12.3.1/../../../../../H-x86_64-mingw32/nios2-elf/lib/mhw-mulx\libc.a(libc_a-reallocr.o)
                                0x262 (size before relaxing)
 .debug_line_str
                0x0000121c       0x3b c:/intelfpga_lite/23.1std/nios2eds/bin/gnu/h-x86_64-mingw32/bin/../lib/gcc/nios2-elf/12.3.1/../../../../../H-x86_64-mingw32/nios2-elf/lib/mhw-mulx\libc.a(libc_a-wctomb_r.o)
                                0x31d (size before relaxing)
 .debug_line_str
                0x00001257       0x3a c:/intelfpga_lite/23.1std/nios2eds/bin/gnu/h-x86_64-mingw32/bin/../lib/gcc/nios2-elf/12.3.1/../../../../../H-x86_64-mingw32/nios2-elf/lib/mhw-mulx\libc.a(libc_a-wcrtomb.o)
                                0x311 (size before relaxing)
 .debug_line_str
                0x00001291       0x6f c:/intelfpga_lite/23.1std/nios2eds/bin/gnu/h-x86_64-mingw32/bin/../lib/gcc/nios2-elf/12.3.1/../../../../../H-x86_64-mingw32/nios2-elf/lib/mhw-mulx\libc.a(libc_a-ctype_.o)
                                0x1d9 (size before relaxing)
 .debug_line_str
                0x00001300       0x38 c:/intelfpga_lite/23.1std/nios2eds/bin/gnu/h-x86_64-mingw32/bin/../lib/gcc/nios2-elf/12.3.1/../../../../../H-x86_64-mingw32/nios2-elf/lib/mhw-mulx\libc.a(libc_a-fclose.o)
                                0x2ce (size before relaxing)
 .debug_line_str
                0x00001338       0x57 c:/intelfpga_lite/23.1std/nios2eds/bin/gnu/h-x86_64-mingw32/bin/../lib/gcc/nios2-elf/12.3.1/../../../../../H-x86_64-mingw32/nios2-elf/lib/mhw-mulx\libc.a(libc_a-makebuf.o)
                                0x36b (size before relaxing)
 .debug_line_str
                0x0000138f       0x36 c:/intelfpga_lite/23.1std/nios2eds/bin/gnu/h-x86_64-mingw32/bin/../lib/gcc/nios2-elf/12.3.1/../../../../../H-x86_64-mingw32/nios2-elf/lib/mhw-mulx\libc.a(libc_a-wbuf.o)
                                0x2c9 (size before relaxing)
 .debug_line_str
                0x000013c5       0x39 c:/intelfpga_lite/23.1std/nios2eds/bin/gnu/h-x86_64-mingw32/bin/../lib/gcc/nios2-elf/12.3.1/../../../../../H-x86_64-mingw32/nios2-elf/lib/mhw-mulx\libc.a(libc_a-strcmp.o)
                                0x1d3 (size before relaxing)
 .debug_line_str
                0x000013fe       0x38 c:/intelfpga_lite/23.1std/nios2eds/bin/gnu/h-x86_64-mingw32/bin/../lib/gcc/nios2-elf/12.3.1/../../../../../H-x86_64-mingw32/nios2-elf/lib/mhw-mulx\libc.a(libc_a-fstatr.o)
                                0x357 (size before relaxing)
 .debug_line_str
                0x00001436       0x39 c:/intelfpga_lite/23.1std/nios2eds/bin/gnu/h-x86_64-mingw32/bin/../lib/gcc/nios2-elf/12.3.1/../../../../../H-x86_64-mingw32/nios2-elf/lib/mhw-mulx\libc.a(libc_a-isattyr.o)
                                0x2c9 (size before relaxing)
 .debug_line_str
                0x0000146f       0x37 c:/intelfpga_lite/23.1std/nios2eds/bin/gnu/h-x86_64-mingw32/bin/../lib/gcc/nios2-elf/12.3.1/../../../../../H-x86_64-mingw32/nios2-elf/lib/mhw-mulx\libc.a(libc_a-sbrkr.o)
                                0x2ba (size before relaxing)
 .debug_line_str
                0x000014a6       0x40 c:/intelfpga_lite/23.1std/nios2eds/bin/gnu/h-x86_64-mingw32/bin/../lib/gcc/nios2-elf/12.3.1/../../../../../H-x86_64-mingw32/nios2-elf/lib/mhw-mulx\libc.a(libc_a-__call_atexit.o)
                                0x1eb (size before relaxing)
 .debug_line_str
                0x000014e6       0x39 c:/intelfpga_lite/23.1std/nios2eds/bin/gnu/h-x86_64-mingw32/bin/../lib/gcc/nios2-elf/12.3.1/../../../../../H-x86_64-mingw32/nios2-elf/lib/mhw-mulx\libc.a(libc_a-assert.o)
                                0x2d1 (size before relaxing)
 .debug_line_str
                0x0000151f       0x3a c:/intelfpga_lite/23.1std/nios2eds/bin/gnu/h-x86_64-mingw32/bin/../lib/gcc/nios2-elf/12.3.1/../../../../../H-x86_64-mingw32/nios2-elf/lib/mhw-mulx\libc.a(libc_a-callocr.o)
                                0x268 (size before relaxing)
 .debug_line_str
                0x00001559       0x3a c:/intelfpga_lite/23.1std/nios2eds/bin/gnu/h-x86_64-mingw32/bin/../lib/gcc/nios2-elf/12.3.1/../../../../../H-x86_64-mingw32/nios2-elf/lib/mhw-mulx\libc.a(libc_a-fiprintf.o)
                                0x2cc (size before relaxing)
 .debug_line_str
                0x00001593       0x3e c:/intelfpga_lite/23.1std/nios2eds/bin/gnu/h-x86_64-mingw32/bin/../lib/gcc/nios2-elf/12.3.1/../../../../../H-x86_64-mingw32/nios2-elf/lib/mhw-mulx\libc.a(libc_a-vfiprintfr_1.o)
                                0x2d8 (size before relaxing)
 .debug_line_str
                0x000015d1       0x66 c:/intelfpga_lite/23.1std/nios2eds/bin/gnu/h-x86_64-mingw32/bin/../lib/gcc/nios2-elf/12.3.1/../../../../../H-x86_64-mingw32/nios2-elf/lib/mhw-mulx\libc.a(libc_a-errno.o)
                                0x25f (size before relaxing)
 .debug_line_str
                0x00001637       0x41 c:/intelfpga_lite/23.1std/nios2eds/bin/gnu/h-x86_64-mingw32/bin/../lib/gcc/nios2-elf/12.3.1/../../../../../H-x86_64-mingw32/nios2-elf/lib/mhw-mulx\libc.a(libc_a-abort.o)
                                0x241 (size before relaxing)
 .debug_line_str
                0x00001678       0x69 c:/intelfpga_lite/23.1std/nios2eds/bin/gnu/h-x86_64-mingw32/bin/../lib/gcc/nios2-elf/12.3.1/../../../../../H-x86_64-mingw32/nios2-elf/lib/mhw-mulx\libc.a(libc_a-signal.o)
                                0x2da (size before relaxing)
 .debug_line_str
                0x000016e1       0x39 c:/intelfpga_lite/23.1std/nios2eds/bin/gnu/h-x86_64-mingw32/bin/../lib/gcc/nios2-elf/12.3.1/../../../../../H-x86_64-mingw32/nios2-elf/lib/mhw-mulx\libc.a(libc_a-signalr.o)
                                0x2da (size before relaxing)
 .debug_line_str
                0x0000171a      0x15a c:/intelfpga_lite/23.1std/nios2eds/bin/gnu/h-x86_64-mingw32/bin/../lib/gcc/nios2-elf/12.3.1/mhw-mulx\libgcc.a(_udivdi3.o)
 .debug_line_str
                0x0000171a      0x15a c:/intelfpga_lite/23.1std/nios2eds/bin/gnu/h-x86_64-mingw32/bin/../lib/gcc/nios2-elf/12.3.1/mhw-mulx\libgcc.a(_umoddi3.o)
 .debug_line_str
                0x0000171a       0x79 c:/intelfpga_lite/23.1std/nios2eds/bin/gnu/h-x86_64-mingw32/bin/../lib/gcc/nios2-elf/12.3.1/mhw-mulx\libgcc.a(lib2-divmod.o)
                                0x183 (size before relaxing)
 .debug_line_str
                0x00001793       0x3c c:/intelfpga_lite/23.1std/nios2eds/bin/gnu/h-x86_64-mingw32/bin/../lib/gcc/nios2-elf/12.3.1/mhw-mulx\libgcc.a(adddf3.o)
                                0x166 (size before relaxing)
 .debug_line_str
                0x000017cf       0x33 c:/intelfpga_lite/23.1std/nios2eds/bin/gnu/h-x86_64-mingw32/bin/../lib/gcc/nios2-elf/12.3.1/mhw-mulx\libgcc.a(divdf3.o)
                                0x170 (size before relaxing)
 .debug_line_str
                0x00001802       0x32 c:/intelfpga_lite/23.1std/nios2eds/bin/gnu/h-x86_64-mingw32/bin/../lib/gcc/nios2-elf/12.3.1/mhw-mulx\libgcc.a(eqdf2.o)
                                0x163 (size before relaxing)
 .debug_line_str
                0x00001834       0x32 c:/intelfpga_lite/23.1std/nios2eds/bin/gnu/h-x86_64-mingw32/bin/../lib/gcc/nios2-elf/12.3.1/mhw-mulx\libgcc.a(gedf2.o)
                                0x163 (size before relaxing)
 .debug_line_str
                0x00001866       0x32 c:/intelfpga_lite/23.1std/nios2eds/bin/gnu/h-x86_64-mingw32/bin/../lib/gcc/nios2-elf/12.3.1/mhw-mulx\libgcc.a(ledf2.o)
                                0x163 (size before relaxing)
 .debug_line_str
                0x00001898       0x33 c:/intelfpga_lite/23.1std/nios2eds/bin/gnu/h-x86_64-mingw32/bin/../lib/gcc/nios2-elf/12.3.1/mhw-mulx\libgcc.a(muldf3.o)
                                0x170 (size before relaxing)
 .debug_line_str
                0x000018cb       0x33 c:/intelfpga_lite/23.1std/nios2eds/bin/gnu/h-x86_64-mingw32/bin/../lib/gcc/nios2-elf/12.3.1/mhw-mulx\libgcc.a(subdf3.o)
                                0x166 (size before relaxing)
 .debug_line_str
                0x000018fe       0x35 c:/intelfpga_lite/23.1std/nios2eds/bin/gnu/h-x86_64-mingw32/bin/../lib/gcc/nios2-elf/12.3.1/mhw-mulx\libgcc.a(unorddf2.o)
                                0x16c (size before relaxing)
 .debug_line_str
                0x00001933       0x34 c:/intelfpga_lite/23.1std/nios2eds/bin/gnu/h-x86_64-mingw32/bin/../lib/gcc/nios2-elf/12.3.1/mhw-mulx\libgcc.a(fixdfsi.o)
                                0x173 (size before relaxing)
 .debug_line_str
                0x00001967       0x36 c:/intelfpga_lite/23.1std/nios2eds/bin/gnu/h-x86_64-mingw32/bin/../lib/gcc/nios2-elf/12.3.1/mhw-mulx\libgcc.a(floatsidf.o)
                                0x179 (size before relaxing)
 .debug_line_str
                0x0000199d       0x38 c:/intelfpga_lite/23.1std/nios2eds/bin/gnu/h-x86_64-mingw32/bin/../lib/gcc/nios2-elf/12.3.1/mhw-mulx\libgcc.a(floatunsidf.o)
                                0x17f (size before relaxing)
 .debug_line_str
                0x000019d5       0xd7 c:/Users/Galileo/Projects/ELEC60011-fpga/system_template_de1_soc/software/hello_world2_bsp/\libhal_bsp.a(alt_close.o)
                                0x1a5 (size before relaxing)
 .debug_line_str
                0x00001aac       0x68 c:/Users/Galileo/Projects/ELEC60011-fpga/system_template_de1_soc/software/hello_world2_bsp/\libhal_bsp.a(alt_dev.o)
                                0x276 (size before relaxing)
 .debug_line_str
                0x00001b14       0x14 c:/Users/Galileo/Projects/ELEC60011-fpga/system_template_de1_soc/software/hello_world2_bsp/\libhal_bsp.a(alt_errno.o)
                                0x15e (size before relaxing)
 .debug_line_str
                0x00001b28       0x1d c:/Users/Galileo/Projects/ELEC60011-fpga/system_template_de1_soc/software/hello_world2_bsp/\libhal_bsp.a(alt_exit.o)
                                 0xff (size before relaxing)
 .debug_line_str
                0x00001b45       0x14 c:/Users/Galileo/Projects/ELEC60011-fpga/system_template_de1_soc/software/hello_world2_bsp/\libhal_bsp.a(alt_fstat.o)
                                0x232 (size before relaxing)
 .debug_line_str
                0x00001b59       0x15 c:/Users/Galileo/Projects/ELEC60011-fpga/system_template_de1_soc/software/hello_world2_bsp/\libhal_bsp.a(alt_getpid.o)
                                 0xed (size before relaxing)
 .debug_line_str
                0x00001b6e       0x15 c:/Users/Galileo/Projects/ELEC60011-fpga/system_template_de1_soc/software/hello_world2_bsp/\libhal_bsp.a(alt_isatty.o)
                                0x235 (size before relaxing)
 .debug_line_str
                0x00001b83       0x13 c:/Users/Galileo/Projects/ELEC60011-fpga/system_template_de1_soc/software/hello_world2_bsp/\libhal_bsp.a(alt_kill.o)
                                0x165 (size before relaxing)
 .debug_line_str
                0x00001b96       0x2a c:/Users/Galileo/Projects/ELEC60011-fpga/system_template_de1_soc/software/hello_world2_bsp/\libhal_bsp.a(alt_load.o)
                                0x122 (size before relaxing)
 .debug_line_str
                0x00001bc0       0x14 c:/Users/Galileo/Projects/ELEC60011-fpga/system_template_de1_soc/software/hello_world2_bsp/\libhal_bsp.a(alt_lseek.o)
                                0x1b6 (size before relaxing)
 .debug_line_str
                0x00001bd4       0x3b c:/Users/Galileo/Projects/ELEC60011-fpga/system_template_de1_soc/software/hello_world2_bsp/\libhal_bsp.a(alt_main.o)
                                0x1e9 (size before relaxing)
 .debug_line_str
                0x00001c0f       0x77 c:/Users/Galileo/Projects/ELEC60011-fpga/system_template_de1_soc/software/hello_world2_bsp/\libhal_bsp.a(alt_malloc_lock.o)
                                0x1cc (size before relaxing)
 .debug_line_str
                0x00001c86       0x13 c:/Users/Galileo/Projects/ELEC60011-fpga/system_template_de1_soc/software/hello_world2_bsp/\libhal_bsp.a(alt_read.o)
                                0x29e (size before relaxing)
 .debug_line_str
                0x00001c99       0x19 c:/Users/Galileo/Projects/ELEC60011-fpga/system_template_de1_soc/software/hello_world2_bsp/\libhal_bsp.a(alt_release_fd.o)
                                0x14d (size before relaxing)
 .debug_line_str
                0x00001cb2       0x13 c:/Users/Galileo/Projects/ELEC60011-fpga/system_template_de1_soc/software/hello_world2_bsp/\libhal_bsp.a(alt_sbrk.o)
                                0x159 (size before relaxing)
 .debug_line_str
                0x00001cc5       0x20 c:/Users/Galileo/Projects/ELEC60011-fpga/system_template_de1_soc/software/hello_world2_bsp/\libhal_bsp.a(alt_times.o)
                                0x19b (size before relaxing)
 .debug_line_str
                0x00001ce5       0x14 c:/Users/Galileo/Projects/ELEC60011-fpga/system_template_de1_soc/software/hello_world2_bsp/\libhal_bsp.a(alt_write.o)
                                0x2a1 (size before relaxing)
 .debug_line_str
                0x00001cf9       0x92 c:/Users/Galileo/Projects/ELEC60011-fpga/system_template_de1_soc/software/hello_world2_bsp/\libhal_bsp.a(alt_sys_init.o)
                                0x1b9 (size before relaxing)
 .debug_line_str
                0x00001d8b       0x35 c:/Users/Galileo/Projects/ELEC60011-fpga/system_template_de1_soc/software/hello_world2_bsp/\libhal_bsp.a(altera_avalon_jtag_uart_fd.o)
                                0x1a4 (size before relaxing)
 .debug_line_str
                0x00001dc0       0x2b c:/Users/Galileo/Projects/ELEC60011-fpga/system_template_de1_soc/software/hello_world2_bsp/\libhal_bsp.a(altera_avalon_jtag_uart_read.o)
                                0x169 (size before relaxing)
 .debug_line_str
                0x00001deb       0x2c c:/Users/Galileo/Projects/ELEC60011-fpga/system_template_de1_soc/software/hello_world2_bsp/\libhal_bsp.a(altera_avalon_jtag_uart_write.o)
                                0x16c (size before relaxing)
 .debug_line_str
                0x00001e17       0x25 c:/Users/Galileo/Projects/ELEC60011-fpga/system_template_de1_soc/software/hello_world2_bsp/\libhal_bsp.a(altera_avalon_timer_sc.o)
                                0x16e (size before relaxing)
 .debug_line_str
                0x00001e3c       0x1f c:/Users/Galileo/Projects/ELEC60011-fpga/system_template_de1_soc/software/hello_world2_bsp/\libhal_bsp.a(alt_dcache_flush_all.o)
                                0x10b (size before relaxing)
 .debug_line_str
                0x00001e5b       0x1f c:/Users/Galileo/Projects/ELEC60011-fpga/system_template_de1_soc/software/hello_world2_bsp/\libhal_bsp.a(alt_dev_llist_insert.o)
                                0x150 (size before relaxing)
 .debug_line_str
                0x00001e7a       0x1f c:/Users/Galileo/Projects/ELEC60011-fpga/system_template_de1_soc/software/hello_world2_bsp/\libhal_bsp.a(alt_icache_flush_all.o)
                                0x13b (size before relaxing)
 .debug_line_str
                0x00001e99       0x3a c:/Users/Galileo/Projects/ELEC60011-fpga/system_template_de1_soc/software/hello_world2_bsp/\libhal_bsp.a(alt_iic.o)
                                0x149 (size before relaxing)
 .debug_line_str
                0x00001ed3       0x2f c:/Users/Galileo/Projects/ELEC60011-fpga/system_template_de1_soc/software/hello_world2_bsp/\libhal_bsp.a(alt_iic_isr_register.o)
                                0x158 (size before relaxing)
 .debug_line_str
                0x00001f02       0x2b c:/Users/Galileo/Projects/ELEC60011-fpga/system_template_de1_soc/software/hello_world2_bsp/\libhal_bsp.a(alt_io_redirect.o)
                                0x29f (size before relaxing)
 .debug_line_str
                0x00001f2d       0x1a c:/Users/Galileo/Projects/ELEC60011-fpga/system_template_de1_soc/software/hello_world2_bsp/\libhal_bsp.a(alt_irq_handler.o)
                                0x12a (size before relaxing)
 .debug_line_str
                0x00001f47       0x17 c:/Users/Galileo/Projects/ELEC60011-fpga/system_template_de1_soc/software/hello_world2_bsp/\libhal_bsp.a(alt_irq_vars.o)
                                0x109 (size before relaxing)
 .debug_line_str
                0x00001f5e       0x13 c:/Users/Galileo/Projects/ELEC60011-fpga/system_template_de1_soc/software/hello_world2_bsp/\libhal_bsp.a(alt_open.o)
                                0x147 (size before relaxing)
 .debug_line_str
                0x00001f71       0x13 c:/Users/Galileo/Projects/ELEC60011-fpga/system_template_de1_soc/software/hello_world2_bsp/\libhal_bsp.a(alt_tick.o)
                                0x148 (size before relaxing)
 .debug_line_str
                0x00001f84       0x20 c:/Users/Galileo/Projects/ELEC60011-fpga/system_template_de1_soc/software/hello_world2_bsp/\libhal_bsp.a(altera_nios2_gen2_irq.o)
                                0x10e (size before relaxing)
 .debug_line_str
                0x00001fa4       0x17 c:/Users/Galileo/Projects/ELEC60011-fpga/system_template_de1_soc/software/hello_world2_bsp/\libhal_bsp.a(alt_find_dev.o)
                                0x1ea (size before relaxing)
 .debug_line_str
                0x00001fbb       0x18 c:/Users/Galileo/Projects/ELEC60011-fpga/system_template_de1_soc/software/hello_world2_bsp/\libhal_bsp.a(alt_find_file.o)
                                0x207 (size before relaxing)
 .debug_line_str
                0x00001fd3       0x15 c:/Users/Galileo/Projects/ELEC60011-fpga/system_template_de1_soc/software/hello_world2_bsp/\libhal_bsp.a(alt_get_fd.o)
                                0x150 (size before relaxing)
 .debug_line_str
                0x00001fe8       0x1b c:/Users/Galileo/Projects/ELEC60011-fpga/system_template_de1_soc/software/hello_world2_bsp/\libhal_bsp.a(alt_icache_flush.o)
                                0x115 (size before relaxing)
 .debug_line_str
                0x00002003       0x3b c:/Users/Galileo/Projects/ELEC60011-fpga/system_template_de1_soc/software/hello_world2_bsp/\libhal_bsp.a(alt_instruction_exception_entry.o)
                                0x161 (size before relaxing)
 .debug_line_str
                0x0000203e       0x39 c:/intelfpga_lite/23.1std/nios2eds/bin/gnu/h-x86_64-mingw32/bin/../lib/gcc/nios2-elf/12.3.1/../../../../../H-x86_64-mingw32/nios2-elf/lib/mhw-mulx\libc.a(libc_a-memcmp.o)
                                0x249 (size before relaxing)

.debug_loclists
                0x00000000    0x18403
 .debug_loclists
                0x00000000       0x86 c:/intelfpga_lite/23.1std/nios2eds/bin/gnu/h-x86_64-mingw32/bin/../lib/gcc/nios2-elf/12.3.1/../../../../../H-x86_64-mingw32/nios2-elf/lib/mhw-mulx\libm.a(libm_a-sf_cos.o)
 .debug_loclists
                0x00000086      0x141 c:/intelfpga_lite/23.1std/nios2eds/bin/gnu/h-x86_64-mingw32/bin/../lib/gcc/nios2-elf/12.3.1/../../../../../H-x86_64-mingw32/nios2-elf/lib/mhw-mulx\libm.a(libm_a-kf_cos.o)
 .debug_loclists
                0x000001c7       0xf6 c:/intelfpga_lite/23.1std/nios2eds/bin/gnu/h-x86_64-mingw32/bin/../lib/gcc/nios2-elf/12.3.1/../../../../../H-x86_64-mingw32/nios2-elf/lib/mhw-mulx\libm.a(libm_a-kf_sin.o)
 .debug_loclists
                0x000002bd      0x476 c:/intelfpga_lite/23.1std/nios2eds/bin/gnu/h-x86_64-mingw32/bin/../lib/gcc/nios2-elf/12.3.1/../../../../../H-x86_64-mingw32/nios2-elf/lib/mhw-mulx\libm.a(libm_a-ef_rem_pio2.o)
 .debug_loclists
                0x00000733       0x58 c:/intelfpga_lite/23.1std/nios2eds/bin/gnu/h-x86_64-mingw32/bin/../lib/gcc/nios2-elf/12.3.1/../../../../../H-x86_64-mingw32/nios2-elf/lib/mhw-mulx\libm.a(libm_a-sf_fabs.o)
 .debug_loclists
                0x0000078b      0xa41 c:/intelfpga_lite/23.1std/nios2eds/bin/gnu/h-x86_64-mingw32/bin/../lib/gcc/nios2-elf/12.3.1/../../../../../H-x86_64-mingw32/nios2-elf/lib/mhw-mulx\libm.a(libm_a-kf_rem_pio2.o)
 .debug_loclists
                0x000011cc      0x128 c:/intelfpga_lite/23.1std/nios2eds/bin/gnu/h-x86_64-mingw32/bin/../lib/gcc/nios2-elf/12.3.1/../../../../../H-x86_64-mingw32/nios2-elf/lib/mhw-mulx\libm.a(libm_a-sf_floor.o)
 .debug_loclists
                0x000012f4      0x234 c:/intelfpga_lite/23.1std/nios2eds/bin/gnu/h-x86_64-mingw32/bin/../lib/gcc/nios2-elf/12.3.1/../../../../../H-x86_64-mingw32/nios2-elf/lib/mhw-mulx\libm.a(libm_a-sf_scalbn.o)
 .debug_loclists
                0x00001528      0xa52 c:/intelfpga_lite/23.1std/nios2eds/bin/gnu/h-x86_64-mingw32/bin/../lib/gcc/nios2-elf/12.3.1/mhw-mulx\libgcc.a(addsf3.o)
 .debug_loclists
                0x00001f7a      0x6ad c:/intelfpga_lite/23.1std/nios2eds/bin/gnu/h-x86_64-mingw32/bin/../lib/gcc/nios2-elf/12.3.1/mhw-mulx\libgcc.a(divsf3.o)
 .debug_loclists
                0x00002627       0xe9 c:/intelfpga_lite/23.1std/nios2eds/bin/gnu/h-x86_64-mingw32/bin/../lib/gcc/nios2-elf/12.3.1/mhw-mulx\libgcc.a(eqsf2.o)
 .debug_loclists
                0x00002710      0x146 c:/intelfpga_lite/23.1std/nios2eds/bin/gnu/h-x86_64-mingw32/bin/../lib/gcc/nios2-elf/12.3.1/mhw-mulx\libgcc.a(gesf2.o)
 .debug_loclists
                0x00002856      0x671 c:/intelfpga_lite/23.1std/nios2eds/bin/gnu/h-x86_64-mingw32/bin/../lib/gcc/nios2-elf/12.3.1/mhw-mulx\libgcc.a(mulsf3.o)
 .debug_loclists
                0x00002ec7      0x9f8 c:/intelfpga_lite/23.1std/nios2eds/bin/gnu/h-x86_64-mingw32/bin/../lib/gcc/nios2-elf/12.3.1/mhw-mulx\libgcc.a(subsf3.o)
 .debug_loclists
                0x000038bf       0xe4 c:/intelfpga_lite/23.1std/nios2eds/bin/gnu/h-x86_64-mingw32/bin/../lib/gcc/nios2-elf/12.3.1/mhw-mulx\libgcc.a(fixsfsi.o)
 .debug_loclists
                0x000039a3      0x167 c:/intelfpga_lite/23.1std/nios2eds/bin/gnu/h-x86_64-mingw32/bin/../lib/gcc/nios2-elf/12.3.1/mhw-mulx\libgcc.a(floatsisf.o)
 .debug_loclists
                0x00003b0a       0x46 c:/intelfpga_lite/23.1std/nios2eds/bin/gnu/h-x86_64-mingw32/bin/../lib/gcc/nios2-elf/12.3.1/mhw-mulx\libgcc.a(_clzsi2.o)
 .debug_loclists
                0x00003b50       0x17 c:/intelfpga_lite/23.1std/nios2eds/bin/gnu/h-x86_64-mingw32/bin/../lib/gcc/nios2-elf/12.3.1/../../../../../H-x86_64-mingw32/nios2-elf/lib/mhw-mulx\libc.a(libc_a-rand.o)
 .debug_loclists
                0x00003b67       0xb3 c:/intelfpga_lite/23.1std/nios2eds/bin/gnu/h-x86_64-mingw32/bin/../lib/gcc/nios2-elf/12.3.1/../../../../../H-x86_64-mingw32/nios2-elf/lib/mhw-mulx\libc.a(libc_a-printf.o)
 .debug_loclists
                0x00003c1a       0xd7 c:/intelfpga_lite/23.1std/nios2eds/bin/gnu/h-x86_64-mingw32/bin/../lib/gcc/nios2-elf/12.3.1/../../../../../H-x86_64-mingw32/nios2-elf/lib/mhw-mulx\libc.a(libc_a-puts.o)
 .debug_loclists
                0x00003cf1       0x4d c:/intelfpga_lite/23.1std/nios2eds/bin/gnu/h-x86_64-mingw32/bin/../lib/gcc/nios2-elf/12.3.1/../../../../../H-x86_64-mingw32/nios2-elf/lib/mhw-mulx\libc.a(libc_a-strlen.o)
 .debug_loclists
                0x00003d3e     0x2677 c:/intelfpga_lite/23.1std/nios2eds/bin/gnu/h-x86_64-mingw32/bin/../lib/gcc/nios2-elf/12.3.1/../../../../../H-x86_64-mingw32/nios2-elf/lib/mhw-mulx\libc.a(libc_a-vfprintf.o)
 .debug_loclists
                0x000063b5     0x1c9c c:/intelfpga_lite/23.1std/nios2eds/bin/gnu/h-x86_64-mingw32/bin/../lib/gcc/nios2-elf/12.3.1/../../../../../H-x86_64-mingw32/nios2-elf/lib/mhw-mulx\libc.a(libc_a-vfiprintf.o)
 .debug_loclists
                0x00008051      0x332 c:/intelfpga_lite/23.1std/nios2eds/bin/gnu/h-x86_64-mingw32/bin/../lib/gcc/nios2-elf/12.3.1/../../../../../H-x86_64-mingw32/nios2-elf/lib/mhw-mulx\libc.a(libc_a-fflush.o)
 .debug_loclists
                0x00008383      0x1c6 c:/intelfpga_lite/23.1std/nios2eds/bin/gnu/h-x86_64-mingw32/bin/../lib/gcc/nios2-elf/12.3.1/../../../../../H-x86_64-mingw32/nios2-elf/lib/mhw-mulx\libc.a(libc_a-findfp.o)
 .debug_loclists
                0x00008549      0x4f0 c:/intelfpga_lite/23.1std/nios2eds/bin/gnu/h-x86_64-mingw32/bin/../lib/gcc/nios2-elf/12.3.1/../../../../../H-x86_64-mingw32/nios2-elf/lib/mhw-mulx\libc.a(libc_a-fvwrite.o)
 .debug_loclists
                0x00008a39       0xb8 c:/intelfpga_lite/23.1std/nios2eds/bin/gnu/h-x86_64-mingw32/bin/../lib/gcc/nios2-elf/12.3.1/../../../../../H-x86_64-mingw32/nios2-elf/lib/mhw-mulx\libc.a(libc_a-fwalk.o)
 .debug_loclists
                0x00008af1      0x2a2 c:/intelfpga_lite/23.1std/nios2eds/bin/gnu/h-x86_64-mingw32/bin/../lib/gcc/nios2-elf/12.3.1/../../../../../H-x86_64-mingw32/nios2-elf/lib/mhw-mulx\libc.a(libc_a-stdio.o)
 .debug_loclists
                0x00008d93       0x92 c:/intelfpga_lite/23.1std/nios2eds/bin/gnu/h-x86_64-mingw32/bin/../lib/gcc/nios2-elf/12.3.1/../../../../../H-x86_64-mingw32/nios2-elf/lib/mhw-mulx\libc.a(libc_a-wsetup.o)
 .debug_loclists
                0x00008e25      0x1d5 c:/intelfpga_lite/23.1std/nios2eds/bin/gnu/h-x86_64-mingw32/bin/../lib/gcc/nios2-elf/12.3.1/../../../../../H-x86_64-mingw32/nios2-elf/lib/mhw-mulx\libc.a(libc_a-fputwc.o)
 .debug_loclists
                0x00008ffa      0x18e c:/intelfpga_lite/23.1std/nios2eds/bin/gnu/h-x86_64-mingw32/bin/../lib/gcc/nios2-elf/12.3.1/../../../../../H-x86_64-mingw32/nios2-elf/lib/mhw-mulx\libc.a(libc_a-memchr.o)
 .debug_loclists
                0x00009188      0x23b c:/intelfpga_lite/23.1std/nios2eds/bin/gnu/h-x86_64-mingw32/bin/../lib/gcc/nios2-elf/12.3.1/../../../../../H-x86_64-mingw32/nios2-elf/lib/mhw-mulx\libc.a(libc_a-memcpy.o)
 .debug_loclists
                0x000093c3      0x276 c:/intelfpga_lite/23.1std/nios2eds/bin/gnu/h-x86_64-mingw32/bin/../lib/gcc/nios2-elf/12.3.1/../../../../../H-x86_64-mingw32/nios2-elf/lib/mhw-mulx\libc.a(libc_a-memmove.o)
 .debug_loclists
                0x00009639      0x15e c:/intelfpga_lite/23.1std/nios2eds/bin/gnu/h-x86_64-mingw32/bin/../lib/gcc/nios2-elf/12.3.1/../../../../../H-x86_64-mingw32/nios2-elf/lib/mhw-mulx\libc.a(libc_a-memset.o)
 .debug_loclists
                0x00009797      0x126 c:/intelfpga_lite/23.1std/nios2eds/bin/gnu/h-x86_64-mingw32/bin/../lib/gcc/nios2-elf/12.3.1/../../../../../H-x86_64-mingw32/nios2-elf/lib/mhw-mulx\libc.a(libc_a-locale.o)
 .debug_loclists
                0x000098bd       0x23 c:/intelfpga_lite/23.1std/nios2eds/bin/gnu/h-x86_64-mingw32/bin/../lib/gcc/nios2-elf/12.3.1/../../../../../H-x86_64-mingw32/nios2-elf/lib/mhw-mulx\libc.a(libc_a-localeconv.o)
 .debug_loclists
                0x000098e0       0x5d c:/intelfpga_lite/23.1std/nios2eds/bin/gnu/h-x86_64-mingw32/bin/../lib/gcc/nios2-elf/12.3.1/../../../../../H-x86_64-mingw32/nios2-elf/lib/mhw-mulx\libc.a(libc_a-closer.o)
 .debug_loclists
                0x0000993d       0x73 c:/intelfpga_lite/23.1std/nios2eds/bin/gnu/h-x86_64-mingw32/bin/../lib/gcc/nios2-elf/12.3.1/../../../../../H-x86_64-mingw32/nios2-elf/lib/mhw-mulx\libc.a(libc_a-reent.o)
 .debug_loclists
                0x000099b0       0x99 c:/intelfpga_lite/23.1std/nios2eds/bin/gnu/h-x86_64-mingw32/bin/../lib/gcc/nios2-elf/12.3.1/../../../../../H-x86_64-mingw32/nios2-elf/lib/mhw-mulx\libc.a(libc_a-lseekr.o)
 .debug_loclists
                0x00009a49       0x99 c:/intelfpga_lite/23.1std/nios2eds/bin/gnu/h-x86_64-mingw32/bin/../lib/gcc/nios2-elf/12.3.1/../../../../../H-x86_64-mingw32/nios2-elf/lib/mhw-mulx\libc.a(libc_a-readr.o)
 .debug_loclists
                0x00009ae2       0x99 c:/intelfpga_lite/23.1std/nios2eds/bin/gnu/h-x86_64-mingw32/bin/../lib/gcc/nios2-elf/12.3.1/../../../../../H-x86_64-mingw32/nios2-elf/lib/mhw-mulx\libc.a(libc_a-writer.o)
 .debug_loclists
                0x00009b7b     0x24de c:/intelfpga_lite/23.1std/nios2eds/bin/gnu/h-x86_64-mingw32/bin/../lib/gcc/nios2-elf/12.3.1/../../../../../H-x86_64-mingw32/nios2-elf/lib/mhw-mulx\libc.a(libc_a-dtoa.o)
 .debug_loclists
                0x0000c059       0x20 c:/intelfpga_lite/23.1std/nios2eds/bin/gnu/h-x86_64-mingw32/bin/../lib/gcc/nios2-elf/12.3.1/../../../../../H-x86_64-mingw32/nios2-elf/lib/mhw-mulx\libc.a(libc_a-exit.o)
 .debug_loclists
                0x0000c079      0x44d c:/intelfpga_lite/23.1std/nios2eds/bin/gnu/h-x86_64-mingw32/bin/../lib/gcc/nios2-elf/12.3.1/../../../../../H-x86_64-mingw32/nios2-elf/lib/mhw-mulx\libc.a(libc_a-freer.o)
 .debug_loclists
                0x0000c4c6      0x96e c:/intelfpga_lite/23.1std/nios2eds/bin/gnu/h-x86_64-mingw32/bin/../lib/gcc/nios2-elf/12.3.1/../../../../../H-x86_64-mingw32/nios2-elf/lib/mhw-mulx\libc.a(libc_a-mallocr.o)
 .debug_loclists
                0x0000ce34       0xb5 c:/intelfpga_lite/23.1std/nios2eds/bin/gnu/h-x86_64-mingw32/bin/../lib/gcc/nios2-elf/12.3.1/../../../../../H-x86_64-mingw32/nios2-elf/lib/mhw-mulx\libc.a(libc_a-mbtowc_r.o)
 .debug_loclists
                0x0000cee9     0x16b8 c:/intelfpga_lite/23.1std/nios2eds/bin/gnu/h-x86_64-mingw32/bin/../lib/gcc/nios2-elf/12.3.1/../../../../../H-x86_64-mingw32/nios2-elf/lib/mhw-mulx\libc.a(libc_a-mprec.o)
 .debug_loclists
                0x0000e5a1      0xe45 c:/intelfpga_lite/23.1std/nios2eds/bin/gnu/h-x86_64-mingw32/bin/../lib/gcc/nios2-elf/12.3.1/../../../../../H-x86_64-mingw32/nios2-elf/lib/mhw-mulx\libc.a(libc_a-reallocr.o)
 .debug_loclists
                0x0000f3e6       0x73 c:/intelfpga_lite/23.1std/nios2eds/bin/gnu/h-x86_64-mingw32/bin/../lib/gcc/nios2-elf/12.3.1/../../../../../H-x86_64-mingw32/nios2-elf/lib/mhw-mulx\libc.a(libc_a-wctomb_r.o)
 .debug_loclists
                0x0000f459      0x19d c:/intelfpga_lite/23.1std/nios2eds/bin/gnu/h-x86_64-mingw32/bin/../lib/gcc/nios2-elf/12.3.1/../../../../../H-x86_64-mingw32/nios2-elf/lib/mhw-mulx\libc.a(libc_a-wcrtomb.o)
 .debug_loclists
                0x0000f5f6      0x10e c:/intelfpga_lite/23.1std/nios2eds/bin/gnu/h-x86_64-mingw32/bin/../lib/gcc/nios2-elf/12.3.1/../../../../../H-x86_64-mingw32/nios2-elf/lib/mhw-mulx\libc.a(libc_a-fclose.o)
 .debug_loclists
                0x0000f704      0x29d c:/intelfpga_lite/23.1std/nios2eds/bin/gnu/h-x86_64-mingw32/bin/../lib/gcc/nios2-elf/12.3.1/../../../../../H-x86_64-mingw32/nios2-elf/lib/mhw-mulx\libc.a(libc_a-makebuf.o)
 .debug_loclists
                0x0000f9a1      0x152 c:/intelfpga_lite/23.1std/nios2eds/bin/gnu/h-x86_64-mingw32/bin/../lib/gcc/nios2-elf/12.3.1/../../../../../H-x86_64-mingw32/nios2-elf/lib/mhw-mulx\libc.a(libc_a-wbuf.o)
 .debug_loclists
                0x0000faf3       0x60 c:/intelfpga_lite/23.1std/nios2eds/bin/gnu/h-x86_64-mingw32/bin/../lib/gcc/nios2-elf/12.3.1/../../../../../H-x86_64-mingw32/nios2-elf/lib/mhw-mulx\libc.a(libc_a-strcmp.o)
 .debug_loclists
                0x0000fb53       0x7b c:/intelfpga_lite/23.1std/nios2eds/bin/gnu/h-x86_64-mingw32/bin/../lib/gcc/nios2-elf/12.3.1/../../../../../H-x86_64-mingw32/nios2-elf/lib/mhw-mulx\libc.a(libc_a-fstatr.o)
 .debug_loclists
                0x0000fbce       0x5d c:/intelfpga_lite/23.1std/nios2eds/bin/gnu/h-x86_64-mingw32/bin/../lib/gcc/nios2-elf/12.3.1/../../../../../H-x86_64-mingw32/nios2-elf/lib/mhw-mulx\libc.a(libc_a-isattyr.o)
 .debug_loclists
                0x0000fc2b       0x5d c:/intelfpga_lite/23.1std/nios2eds/bin/gnu/h-x86_64-mingw32/bin/../lib/gcc/nios2-elf/12.3.1/../../../../../H-x86_64-mingw32/nios2-elf/lib/mhw-mulx\libc.a(libc_a-sbrkr.o)
 .debug_loclists
                0x0000fc88      0x11b c:/intelfpga_lite/23.1std/nios2eds/bin/gnu/h-x86_64-mingw32/bin/../lib/gcc/nios2-elf/12.3.1/../../../../../H-x86_64-mingw32/nios2-elf/lib/mhw-mulx\libc.a(libc_a-__call_atexit.o)
 .debug_loclists
                0x0000fda3      0x104 c:/intelfpga_lite/23.1std/nios2eds/bin/gnu/h-x86_64-mingw32/bin/../lib/gcc/nios2-elf/12.3.1/../../../../../H-x86_64-mingw32/nios2-elf/lib/mhw-mulx\libc.a(libc_a-assert.o)
 .debug_loclists
                0x0000fea7      0x20c c:/intelfpga_lite/23.1std/nios2eds/bin/gnu/h-x86_64-mingw32/bin/../lib/gcc/nios2-elf/12.3.1/../../../../../H-x86_64-mingw32/nios2-elf/lib/mhw-mulx\libc.a(libc_a-callocr.o)
 .debug_loclists
                0x000100b3       0xe1 c:/intelfpga_lite/23.1std/nios2eds/bin/gnu/h-x86_64-mingw32/bin/../lib/gcc/nios2-elf/12.3.1/../../../../../H-x86_64-mingw32/nios2-elf/lib/mhw-mulx\libc.a(libc_a-fiprintf.o)
 .debug_loclists
                0x00010194       0x68 c:/intelfpga_lite/23.1std/nios2eds/bin/gnu/h-x86_64-mingw32/bin/../lib/gcc/nios2-elf/12.3.1/../../../../../H-x86_64-mingw32/nios2-elf/lib/mhw-mulx\libc.a(libc_a-vfiprintfr_1.o)
 .debug_loclists
                0x000101fc      0x501 c:/intelfpga_lite/23.1std/nios2eds/bin/gnu/h-x86_64-mingw32/bin/../lib/gcc/nios2-elf/12.3.1/../../../../../H-x86_64-mingw32/nios2-elf/lib/mhw-mulx\libc.a(libc_a-signal.o)
 .debug_loclists
                0x000106fd       0x92 c:/intelfpga_lite/23.1std/nios2eds/bin/gnu/h-x86_64-mingw32/bin/../lib/gcc/nios2-elf/12.3.1/../../../../../H-x86_64-mingw32/nios2-elf/lib/mhw-mulx\libc.a(libc_a-signalr.o)
 .debug_loclists
                0x0001078f      0xd65 c:/intelfpga_lite/23.1std/nios2eds/bin/gnu/h-x86_64-mingw32/bin/../lib/gcc/nios2-elf/12.3.1/mhw-mulx\libgcc.a(_udivdi3.o)
 .debug_loclists
                0x000114f4      0xb8b c:/intelfpga_lite/23.1std/nios2eds/bin/gnu/h-x86_64-mingw32/bin/../lib/gcc/nios2-elf/12.3.1/mhw-mulx\libgcc.a(_umoddi3.o)
 .debug_loclists
                0x0001207f      0x37a c:/intelfpga_lite/23.1std/nios2eds/bin/gnu/h-x86_64-mingw32/bin/../lib/gcc/nios2-elf/12.3.1/mhw-mulx\libgcc.a(lib2-divmod.o)
 .debug_loclists
                0x000123f9     0x16f4 c:/intelfpga_lite/23.1std/nios2eds/bin/gnu/h-x86_64-mingw32/bin/../lib/gcc/nios2-elf/12.3.1/mhw-mulx\libgcc.a(adddf3.o)
 .debug_loclists
                0x00013aed     0x195a c:/intelfpga_lite/23.1std/nios2eds/bin/gnu/h-x86_64-mingw32/bin/../lib/gcc/nios2-elf/12.3.1/mhw-mulx\libgcc.a(divdf3.o)
 .debug_loclists
                0x00015447       0x7b c:/intelfpga_lite/23.1std/nios2eds/bin/gnu/h-x86_64-mingw32/bin/../lib/gcc/nios2-elf/12.3.1/mhw-mulx\libgcc.a(eqdf2.o)
 .debug_loclists
                0x000154c2      0x23d c:/intelfpga_lite/23.1std/nios2eds/bin/gnu/h-x86_64-mingw32/bin/../lib/gcc/nios2-elf/12.3.1/mhw-mulx\libgcc.a(gedf2.o)
 .debug_loclists
                0x000156ff      0x217 c:/intelfpga_lite/23.1std/nios2eds/bin/gnu/h-x86_64-mingw32/bin/../lib/gcc/nios2-elf/12.3.1/mhw-mulx\libgcc.a(ledf2.o)
 .debug_loclists
                0x00015916      0xde3 c:/intelfpga_lite/23.1std/nios2eds/bin/gnu/h-x86_64-mingw32/bin/../lib/gcc/nios2-elf/12.3.1/mhw-mulx\libgcc.a(muldf3.o)
 .debug_loclists
                0x000166f9     0x17f9 c:/intelfpga_lite/23.1std/nios2eds/bin/gnu/h-x86_64-mingw32/bin/../lib/gcc/nios2-elf/12.3.1/mhw-mulx\libgcc.a(subdf3.o)
 .debug_loclists
                0x00017ef2       0x4f c:/intelfpga_lite/23.1std/nios2eds/bin/gnu/h-x86_64-mingw32/bin/../lib/gcc/nios2-elf/12.3.1/mhw-mulx\libgcc.a(unorddf2.o)
 .debug_loclists
                0x00017f41      0x121 c:/intelfpga_lite/23.1std/nios2eds/bin/gnu/h-x86_64-mingw32/bin/../lib/gcc/nios2-elf/12.3.1/mhw-mulx\libgcc.a(fixdfsi.o)
 .debug_loclists
                0x00018062      0x176 c:/intelfpga_lite/23.1std/nios2eds/bin/gnu/h-x86_64-mingw32/bin/../lib/gcc/nios2-elf/12.3.1/mhw-mulx\libgcc.a(floatsidf.o)
 .debug_loclists
                0x000181d8      0x14a c:/intelfpga_lite/23.1std/nios2eds/bin/gnu/h-x86_64-mingw32/bin/../lib/gcc/nios2-elf/12.3.1/mhw-mulx\libgcc.a(floatunsidf.o)
 .debug_loclists
                0x00018322       0xe1 c:/intelfpga_lite/23.1std/nios2eds/bin/gnu/h-x86_64-mingw32/bin/../lib/gcc/nios2-elf/12.3.1/../../../../../H-x86_64-mingw32/nios2-elf/lib/mhw-mulx\libc.a(libc_a-memcmp.o)

.debug_rnglists
                0x00000000     0x1d03
 .debug_rnglists
                0x00000000       0x14 c:/intelfpga_lite/23.1std/nios2eds/bin/gnu/h-x86_64-mingw32/bin/../lib/gcc/nios2-elf/12.3.1/../../../../../H-x86_64-mingw32/nios2-elf/lib/mhw-mulx\libm.a(libm_a-sf_cos.o)
 .debug_rnglists
                0x00000014       0x14 c:/intelfpga_lite/23.1std/nios2eds/bin/gnu/h-x86_64-mingw32/bin/../lib/gcc/nios2-elf/12.3.1/../../../../../H-x86_64-mingw32/nios2-elf/lib/mhw-mulx\libm.a(libm_a-kf_cos.o)
 .debug_rnglists
                0x00000028       0x14 c:/intelfpga_lite/23.1std/nios2eds/bin/gnu/h-x86_64-mingw32/bin/../lib/gcc/nios2-elf/12.3.1/../../../../../H-x86_64-mingw32/nios2-elf/lib/mhw-mulx\libm.a(libm_a-kf_sin.o)
 .debug_rnglists
                0x0000003c       0x2d c:/intelfpga_lite/23.1std/nios2eds/bin/gnu/h-x86_64-mingw32/bin/../lib/gcc/nios2-elf/12.3.1/../../../../../H-x86_64-mingw32/nios2-elf/lib/mhw-mulx\libm.a(libm_a-ef_rem_pio2.o)
 .debug_rnglists
                0x00000069       0x13 c:/intelfpga_lite/23.1std/nios2eds/bin/gnu/h-x86_64-mingw32/bin/../lib/gcc/nios2-elf/12.3.1/../../../../../H-x86_64-mingw32/nios2-elf/lib/mhw-mulx\libm.a(libm_a-sf_fabs.o)
 .debug_rnglists
                0x0000007c       0x14 c:/intelfpga_lite/23.1std/nios2eds/bin/gnu/h-x86_64-mingw32/bin/../lib/gcc/nios2-elf/12.3.1/../../../../../H-x86_64-mingw32/nios2-elf/lib/mhw-mulx\libm.a(libm_a-kf_rem_pio2.o)
 .debug_rnglists
                0x00000090       0x23 c:/intelfpga_lite/23.1std/nios2eds/bin/gnu/h-x86_64-mingw32/bin/../lib/gcc/nios2-elf/12.3.1/../../../../../H-x86_64-mingw32/nios2-elf/lib/mhw-mulx\libm.a(libm_a-sf_floor.o)
 .debug_rnglists
                0x000000b3       0x3a c:/intelfpga_lite/23.1std/nios2eds/bin/gnu/h-x86_64-mingw32/bin/../lib/gcc/nios2-elf/12.3.1/../../../../../H-x86_64-mingw32/nios2-elf/lib/mhw-mulx\libm.a(libm_a-sf_scalbn.o)
 .debug_rnglists
                0x000000ed      0x164 c:/intelfpga_lite/23.1std/nios2eds/bin/gnu/h-x86_64-mingw32/bin/../lib/gcc/nios2-elf/12.3.1/mhw-mulx\libgcc.a(addsf3.o)
 .debug_rnglists
                0x00000251       0x84 c:/intelfpga_lite/23.1std/nios2eds/bin/gnu/h-x86_64-mingw32/bin/../lib/gcc/nios2-elf/12.3.1/mhw-mulx\libgcc.a(divsf3.o)
 .debug_rnglists
                0x000002d5       0x23 c:/intelfpga_lite/23.1std/nios2eds/bin/gnu/h-x86_64-mingw32/bin/../lib/gcc/nios2-elf/12.3.1/mhw-mulx\libgcc.a(eqsf2.o)
 .debug_rnglists
                0x000002f8       0x3d c:/intelfpga_lite/23.1std/nios2eds/bin/gnu/h-x86_64-mingw32/bin/../lib/gcc/nios2-elf/12.3.1/mhw-mulx\libgcc.a(gesf2.o)
 .debug_rnglists
                0x00000335       0x85 c:/intelfpga_lite/23.1std/nios2eds/bin/gnu/h-x86_64-mingw32/bin/../lib/gcc/nios2-elf/12.3.1/mhw-mulx\libgcc.a(mulsf3.o)
 .debug_rnglists
                0x000003ba      0x1b9 c:/intelfpga_lite/23.1std/nios2eds/bin/gnu/h-x86_64-mingw32/bin/../lib/gcc/nios2-elf/12.3.1/mhw-mulx\libgcc.a(subsf3.o)
 .debug_rnglists
                0x00000573       0x13 c:/intelfpga_lite/23.1std/nios2eds/bin/gnu/h-x86_64-mingw32/bin/../lib/gcc/nios2-elf/12.3.1/mhw-mulx\libgcc.a(fixsfsi.o)
 .debug_rnglists
                0x00000586       0x4f c:/intelfpga_lite/23.1std/nios2eds/bin/gnu/h-x86_64-mingw32/bin/../lib/gcc/nios2-elf/12.3.1/mhw-mulx\libgcc.a(floatsisf.o)
 .debug_rnglists
                0x000005d5       0x16 c:/intelfpga_lite/23.1std/nios2eds/bin/gnu/h-x86_64-mingw32/bin/../lib/gcc/nios2-elf/12.3.1/mhw-mulx\libgcc.a(_clzsi2.o)
 .debug_rnglists
                0x000005eb       0x19 c:/intelfpga_lite/23.1std/nios2eds/bin/gnu/h-x86_64-mingw32/bin/../lib/gcc/nios2-elf/12.3.1/../../../../../H-x86_64-mingw32/nios2-elf/lib/mhw-mulx\libc.a(libc_a-rand.o)
 .debug_rnglists
                0x00000604       0x19 c:/intelfpga_lite/23.1std/nios2eds/bin/gnu/h-x86_64-mingw32/bin/../lib/gcc/nios2-elf/12.3.1/../../../../../H-x86_64-mingw32/nios2-elf/lib/mhw-mulx\libc.a(libc_a-printf.o)
 .debug_rnglists
                0x0000061d       0x26 c:/intelfpga_lite/23.1std/nios2eds/bin/gnu/h-x86_64-mingw32/bin/../lib/gcc/nios2-elf/12.3.1/../../../../../H-x86_64-mingw32/nios2-elf/lib/mhw-mulx\libc.a(libc_a-puts.o)
 .debug_rnglists
                0x00000643       0x14 c:/intelfpga_lite/23.1std/nios2eds/bin/gnu/h-x86_64-mingw32/bin/../lib/gcc/nios2-elf/12.3.1/../../../../../H-x86_64-mingw32/nios2-elf/lib/mhw-mulx\libc.a(libc_a-strlen.o)
 .debug_rnglists
                0x00000657      0x136 c:/intelfpga_lite/23.1std/nios2eds/bin/gnu/h-x86_64-mingw32/bin/../lib/gcc/nios2-elf/12.3.1/../../../../../H-x86_64-mingw32/nios2-elf/lib/mhw-mulx\libc.a(libc_a-vfprintf.o)
 .debug_rnglists
                0x0000078d       0xe6 c:/intelfpga_lite/23.1std/nios2eds/bin/gnu/h-x86_64-mingw32/bin/../lib/gcc/nios2-elf/12.3.1/../../../../../H-x86_64-mingw32/nios2-elf/lib/mhw-mulx\libc.a(libc_a-vfiprintf.o)
 .debug_rnglists
                0x00000873       0x83 c:/intelfpga_lite/23.1std/nios2eds/bin/gnu/h-x86_64-mingw32/bin/../lib/gcc/nios2-elf/12.3.1/../../../../../H-x86_64-mingw32/nios2-elf/lib/mhw-mulx\libc.a(libc_a-fflush.o)
 .debug_rnglists
                0x000008f6       0xb5 c:/intelfpga_lite/23.1std/nios2eds/bin/gnu/h-x86_64-mingw32/bin/../lib/gcc/nios2-elf/12.3.1/../../../../../H-x86_64-mingw32/nios2-elf/lib/mhw-mulx\libc.a(libc_a-findfp.o)
 .debug_rnglists
                0x000009ab       0x35 c:/intelfpga_lite/23.1std/nios2eds/bin/gnu/h-x86_64-mingw32/bin/../lib/gcc/nios2-elf/12.3.1/../../../../../H-x86_64-mingw32/nios2-elf/lib/mhw-mulx\libc.a(libc_a-fvwrite.o)
 .debug_rnglists
                0x000009e0       0x14 c:/intelfpga_lite/23.1std/nios2eds/bin/gnu/h-x86_64-mingw32/bin/../lib/gcc/nios2-elf/12.3.1/../../../../../H-x86_64-mingw32/nios2-elf/lib/mhw-mulx\libc.a(libc_a-fwalk.o)
 .debug_rnglists
                0x000009f4       0x2c c:/intelfpga_lite/23.1std/nios2eds/bin/gnu/h-x86_64-mingw32/bin/../lib/gcc/nios2-elf/12.3.1/../../../../../H-x86_64-mingw32/nios2-elf/lib/mhw-mulx\libc.a(libc_a-stdio.o)
 .debug_rnglists
                0x00000a20       0x25 c:/intelfpga_lite/23.1std/nios2eds/bin/gnu/h-x86_64-mingw32/bin/../lib/gcc/nios2-elf/12.3.1/../../../../../H-x86_64-mingw32/nios2-elf/lib/mhw-mulx\libc.a(libc_a-wsetup.o)
 .debug_rnglists
                0x00000a45       0x3b c:/intelfpga_lite/23.1std/nios2eds/bin/gnu/h-x86_64-mingw32/bin/../lib/gcc/nios2-elf/12.3.1/../../../../../H-x86_64-mingw32/nios2-elf/lib/mhw-mulx\libc.a(libc_a-fputwc.o)
 .debug_rnglists
                0x00000a80       0x14 c:/intelfpga_lite/23.1std/nios2eds/bin/gnu/h-x86_64-mingw32/bin/../lib/gcc/nios2-elf/12.3.1/../../../../../H-x86_64-mingw32/nios2-elf/lib/mhw-mulx\libc.a(libc_a-memchr.o)
 .debug_rnglists
                0x00000a94       0x14 c:/intelfpga_lite/23.1std/nios2eds/bin/gnu/h-x86_64-mingw32/bin/../lib/gcc/nios2-elf/12.3.1/../../../../../H-x86_64-mingw32/nios2-elf/lib/mhw-mulx\libc.a(libc_a-memcpy.o)
 .debug_rnglists
                0x00000aa8       0x14 c:/intelfpga_lite/23.1std/nios2eds/bin/gnu/h-x86_64-mingw32/bin/../lib/gcc/nios2-elf/12.3.1/../../../../../H-x86_64-mingw32/nios2-elf/lib/mhw-mulx\libc.a(libc_a-memmove.o)
 .debug_rnglists
                0x00000abc       0x14 c:/intelfpga_lite/23.1std/nios2eds/bin/gnu/h-x86_64-mingw32/bin/../lib/gcc/nios2-elf/12.3.1/../../../../../H-x86_64-mingw32/nios2-elf/lib/mhw-mulx\libc.a(libc_a-memset.o)
 .debug_rnglists
                0x00000ad0       0x34 c:/intelfpga_lite/23.1std/nios2eds/bin/gnu/h-x86_64-mingw32/bin/../lib/gcc/nios2-elf/12.3.1/../../../../../H-x86_64-mingw32/nios2-elf/lib/mhw-mulx\libc.a(libc_a-locale.o)
 .debug_rnglists
                0x00000b04       0x1f c:/intelfpga_lite/23.1std/nios2eds/bin/gnu/h-x86_64-mingw32/bin/../lib/gcc/nios2-elf/12.3.1/../../../../../H-x86_64-mingw32/nios2-elf/lib/mhw-mulx\libc.a(libc_a-localeconv.o)
 .debug_rnglists
                0x00000b23       0x13 c:/intelfpga_lite/23.1std/nios2eds/bin/gnu/h-x86_64-mingw32/bin/../lib/gcc/nios2-elf/12.3.1/../../../../../H-x86_64-mingw32/nios2-elf/lib/mhw-mulx\libc.a(libc_a-closer.o)
 .debug_rnglists
                0x00000b36       0x14 c:/intelfpga_lite/23.1std/nios2eds/bin/gnu/h-x86_64-mingw32/bin/../lib/gcc/nios2-elf/12.3.1/../../../../../H-x86_64-mingw32/nios2-elf/lib/mhw-mulx\libc.a(libc_a-reent.o)
 .debug_rnglists
                0x00000b4a       0x13 c:/intelfpga_lite/23.1std/nios2eds/bin/gnu/h-x86_64-mingw32/bin/../lib/gcc/nios2-elf/12.3.1/../../../../../H-x86_64-mingw32/nios2-elf/lib/mhw-mulx\libc.a(libc_a-lseekr.o)
 .debug_rnglists
                0x00000b5d       0x13 c:/intelfpga_lite/23.1std/nios2eds/bin/gnu/h-x86_64-mingw32/bin/../lib/gcc/nios2-elf/12.3.1/../../../../../H-x86_64-mingw32/nios2-elf/lib/mhw-mulx\libc.a(libc_a-readr.o)
 .debug_rnglists
                0x00000b70       0x13 c:/intelfpga_lite/23.1std/nios2eds/bin/gnu/h-x86_64-mingw32/bin/../lib/gcc/nios2-elf/12.3.1/../../../../../H-x86_64-mingw32/nios2-elf/lib/mhw-mulx\libc.a(libc_a-writer.o)
 .debug_rnglists
                0x00000b83       0x3c c:/intelfpga_lite/23.1std/nios2eds/bin/gnu/h-x86_64-mingw32/bin/../lib/gcc/nios2-elf/12.3.1/../../../../../H-x86_64-mingw32/nios2-elf/lib/mhw-mulx\libc.a(libc_a-dtoa.o)
 .debug_rnglists
                0x00000bbf       0x13 c:/intelfpga_lite/23.1std/nios2eds/bin/gnu/h-x86_64-mingw32/bin/../lib/gcc/nios2-elf/12.3.1/../../../../../H-x86_64-mingw32/nios2-elf/lib/mhw-mulx\libc.a(libc_a-exit.o)
 .debug_rnglists
                0x00000bd2       0x1b c:/intelfpga_lite/23.1std/nios2eds/bin/gnu/h-x86_64-mingw32/bin/../lib/gcc/nios2-elf/12.3.1/../../../../../H-x86_64-mingw32/nios2-elf/lib/mhw-mulx\libc.a(libc_a-freer.o)
 .debug_rnglists
                0x00000bed       0x46 c:/intelfpga_lite/23.1std/nios2eds/bin/gnu/h-x86_64-mingw32/bin/../lib/gcc/nios2-elf/12.3.1/../../../../../H-x86_64-mingw32/nios2-elf/lib/mhw-mulx\libc.a(libc_a-mallocr.o)
 .debug_rnglists
                0x00000c33       0x19 c:/intelfpga_lite/23.1std/nios2eds/bin/gnu/h-x86_64-mingw32/bin/../lib/gcc/nios2-elf/12.3.1/../../../../../H-x86_64-mingw32/nios2-elf/lib/mhw-mulx\libc.a(libc_a-mbtowc_r.o)
 .debug_rnglists
                0x00000c4c      0x124 c:/intelfpga_lite/23.1std/nios2eds/bin/gnu/h-x86_64-mingw32/bin/../lib/gcc/nios2-elf/12.3.1/../../../../../H-x86_64-mingw32/nios2-elf/lib/mhw-mulx\libc.a(libc_a-mprec.o)
 .debug_rnglists
                0x00000d70       0xef c:/intelfpga_lite/23.1std/nios2eds/bin/gnu/h-x86_64-mingw32/bin/../lib/gcc/nios2-elf/12.3.1/../../../../../H-x86_64-mingw32/nios2-elf/lib/mhw-mulx\libc.a(libc_a-reallocr.o)
 .debug_rnglists
                0x00000e5f       0x19 c:/intelfpga_lite/23.1std/nios2eds/bin/gnu/h-x86_64-mingw32/bin/../lib/gcc/nios2-elf/12.3.1/../../../../../H-x86_64-mingw32/nios2-elf/lib/mhw-mulx\libc.a(libc_a-wctomb_r.o)
 .debug_rnglists
                0x00000e78       0x1a c:/intelfpga_lite/23.1std/nios2eds/bin/gnu/h-x86_64-mingw32/bin/../lib/gcc/nios2-elf/12.3.1/../../../../../H-x86_64-mingw32/nios2-elf/lib/mhw-mulx\libc.a(libc_a-wcrtomb.o)
 .debug_rnglists
                0x00000e92       0x28 c:/intelfpga_lite/23.1std/nios2eds/bin/gnu/h-x86_64-mingw32/bin/../lib/gcc/nios2-elf/12.3.1/../../../../../H-x86_64-mingw32/nios2-elf/lib/mhw-mulx\libc.a(libc_a-fclose.o)
 .debug_rnglists
                0x00000eba       0x58 c:/intelfpga_lite/23.1std/nios2eds/bin/gnu/h-x86_64-mingw32/bin/../lib/gcc/nios2-elf/12.3.1/../../../../../H-x86_64-mingw32/nios2-elf/lib/mhw-mulx\libc.a(libc_a-makebuf.o)
 .debug_rnglists
                0x00000f12       0x2e c:/intelfpga_lite/23.1std/nios2eds/bin/gnu/h-x86_64-mingw32/bin/../lib/gcc/nios2-elf/12.3.1/../../../../../H-x86_64-mingw32/nios2-elf/lib/mhw-mulx\libc.a(libc_a-wbuf.o)
 .debug_rnglists
                0x00000f40       0x14 c:/intelfpga_lite/23.1std/nios2eds/bin/gnu/h-x86_64-mingw32/bin/../lib/gcc/nios2-elf/12.3.1/../../../../../H-x86_64-mingw32/nios2-elf/lib/mhw-mulx\libc.a(libc_a-strcmp.o)
 .debug_rnglists
                0x00000f54       0x13 c:/intelfpga_lite/23.1std/nios2eds/bin/gnu/h-x86_64-mingw32/bin/../lib/gcc/nios2-elf/12.3.1/../../../../../H-x86_64-mingw32/nios2-elf/lib/mhw-mulx\libc.a(libc_a-fstatr.o)
 .debug_rnglists
                0x00000f67       0x13 c:/intelfpga_lite/23.1std/nios2eds/bin/gnu/h-x86_64-mingw32/bin/../lib/gcc/nios2-elf/12.3.1/../../../../../H-x86_64-mingw32/nios2-elf/lib/mhw-mulx\libc.a(libc_a-isattyr.o)
 .debug_rnglists
                0x00000f7a       0x13 c:/intelfpga_lite/23.1std/nios2eds/bin/gnu/h-x86_64-mingw32/bin/../lib/gcc/nios2-elf/12.3.1/../../../../../H-x86_64-mingw32/nios2-elf/lib/mhw-mulx\libc.a(libc_a-sbrkr.o)
 .debug_rnglists
                0x00000f8d       0x2a c:/intelfpga_lite/23.1std/nios2eds/bin/gnu/h-x86_64-mingw32/bin/../lib/gcc/nios2-elf/12.3.1/../../../../../H-x86_64-mingw32/nios2-elf/lib/mhw-mulx\libc.a(libc_a-__call_atexit.o)
 .debug_rnglists
                0x00000fb7       0x19 c:/intelfpga_lite/23.1std/nios2eds/bin/gnu/h-x86_64-mingw32/bin/../lib/gcc/nios2-elf/12.3.1/../../../../../H-x86_64-mingw32/nios2-elf/lib/mhw-mulx\libc.a(libc_a-assert.o)
 .debug_rnglists
                0x00000fd0       0x3d c:/intelfpga_lite/23.1std/nios2eds/bin/gnu/h-x86_64-mingw32/bin/../lib/gcc/nios2-elf/12.3.1/../../../../../H-x86_64-mingw32/nios2-elf/lib/mhw-mulx\libc.a(libc_a-callocr.o)
 .debug_rnglists
                0x0000100d       0x19 c:/intelfpga_lite/23.1std/nios2eds/bin/gnu/h-x86_64-mingw32/bin/../lib/gcc/nios2-elf/12.3.1/../../../../../H-x86_64-mingw32/nios2-elf/lib/mhw-mulx\libc.a(libc_a-fiprintf.o)
 .debug_rnglists
                0x00001026       0x13 c:/intelfpga_lite/23.1std/nios2eds/bin/gnu/h-x86_64-mingw32/bin/../lib/gcc/nios2-elf/12.3.1/../../../../../H-x86_64-mingw32/nios2-elf/lib/mhw-mulx\libc.a(libc_a-vfiprintfr_1.o)
 .debug_rnglists
                0x00001039       0x13 c:/intelfpga_lite/23.1std/nios2eds/bin/gnu/h-x86_64-mingw32/bin/../lib/gcc/nios2-elf/12.3.1/../../../../../H-x86_64-mingw32/nios2-elf/lib/mhw-mulx\libc.a(libc_a-errno.o)
 .debug_rnglists
                0x0000104c       0x13 c:/intelfpga_lite/23.1std/nios2eds/bin/gnu/h-x86_64-mingw32/bin/../lib/gcc/nios2-elf/12.3.1/../../../../../H-x86_64-mingw32/nios2-elf/lib/mhw-mulx\libc.a(libc_a-abort.o)
 .debug_rnglists
                0x0000105f       0x94 c:/intelfpga_lite/23.1std/nios2eds/bin/gnu/h-x86_64-mingw32/bin/../lib/gcc/nios2-elf/12.3.1/../../../../../H-x86_64-mingw32/nios2-elf/lib/mhw-mulx\libc.a(libc_a-signal.o)
 .debug_rnglists
                0x000010f3       0x19 c:/intelfpga_lite/23.1std/nios2eds/bin/gnu/h-x86_64-mingw32/bin/../lib/gcc/nios2-elf/12.3.1/../../../../../H-x86_64-mingw32/nios2-elf/lib/mhw-mulx\libc.a(libc_a-signalr.o)
 .debug_rnglists
                0x0000110c      0x101 c:/intelfpga_lite/23.1std/nios2eds/bin/gnu/h-x86_64-mingw32/bin/../lib/gcc/nios2-elf/12.3.1/mhw-mulx\libgcc.a(_udivdi3.o)
 .debug_rnglists
                0x0000120d       0xd0 c:/intelfpga_lite/23.1std/nios2eds/bin/gnu/h-x86_64-mingw32/bin/../lib/gcc/nios2-elf/12.3.1/mhw-mulx\libgcc.a(_umoddi3.o)
 .debug_rnglists
                0x000012dd       0x3f c:/intelfpga_lite/23.1std/nios2eds/bin/gnu/h-x86_64-mingw32/bin/../lib/gcc/nios2-elf/12.3.1/mhw-mulx\libgcc.a(lib2-divmod.o)
 .debug_rnglists
                0x0000131c      0x239 c:/intelfpga_lite/23.1std/nios2eds/bin/gnu/h-x86_64-mingw32/bin/../lib/gcc/nios2-elf/12.3.1/mhw-mulx\libgcc.a(adddf3.o)
 .debug_rnglists
                0x00001555      0x16a c:/intelfpga_lite/23.1std/nios2eds/bin/gnu/h-x86_64-mingw32/bin/../lib/gcc/nios2-elf/12.3.1/mhw-mulx\libgcc.a(divdf3.o)
 .debug_rnglists
                0x000016bf       0x23 c:/intelfpga_lite/23.1std/nios2eds/bin/gnu/h-x86_64-mingw32/bin/../lib/gcc/nios2-elf/12.3.1/mhw-mulx\libgcc.a(eqdf2.o)
 .debug_rnglists
                0x000016e2       0x3f c:/intelfpga_lite/23.1std/nios2eds/bin/gnu/h-x86_64-mingw32/bin/../lib/gcc/nios2-elf/12.3.1/mhw-mulx\libgcc.a(gedf2.o)
 .debug_rnglists
                0x00001721       0x2f c:/intelfpga_lite/23.1std/nios2eds/bin/gnu/h-x86_64-mingw32/bin/../lib/gcc/nios2-elf/12.3.1/mhw-mulx\libgcc.a(ledf2.o)
 .debug_rnglists
                0x00001750      0x1b4 c:/intelfpga_lite/23.1std/nios2eds/bin/gnu/h-x86_64-mingw32/bin/../lib/gcc/nios2-elf/12.3.1/mhw-mulx\libgcc.a(muldf3.o)
 .debug_rnglists
                0x00001904      0x2ba c:/intelfpga_lite/23.1std/nios2eds/bin/gnu/h-x86_64-mingw32/bin/../lib/gcc/nios2-elf/12.3.1/mhw-mulx\libgcc.a(subdf3.o)
 .debug_rnglists
                0x00001bbe       0x23 c:/intelfpga_lite/23.1std/nios2eds/bin/gnu/h-x86_64-mingw32/bin/../lib/gcc/nios2-elf/12.3.1/mhw-mulx\libgcc.a(unorddf2.o)
 .debug_rnglists
                0x00001be1       0x13 c:/intelfpga_lite/23.1std/nios2eds/bin/gnu/h-x86_64-mingw32/bin/../lib/gcc/nios2-elf/12.3.1/mhw-mulx\libgcc.a(fixdfsi.o)
 .debug_rnglists
                0x00001bf4       0x5f c:/intelfpga_lite/23.1std/nios2eds/bin/gnu/h-x86_64-mingw32/bin/../lib/gcc/nios2-elf/12.3.1/mhw-mulx\libgcc.a(floatsidf.o)
 .debug_rnglists
                0x00001c53       0x5a c:/intelfpga_lite/23.1std/nios2eds/bin/gnu/h-x86_64-mingw32/bin/../lib/gcc/nios2-elf/12.3.1/mhw-mulx\libgcc.a(floatunsidf.o)
 .debug_rnglists
                0x00001cad       0x16 c:/Users/Galileo/Projects/ELEC60011-fpga/system_template_de1_soc/software/hello_world2_bsp/\libhal_bsp.a(altera_avalon_jtag_uart_read.o)
 .debug_rnglists
                0x00001cc3       0x14 c:/Users/Galileo/Projects/ELEC60011-fpga/system_template_de1_soc/software/hello_world2_bsp/\libhal_bsp.a(alt_irq_handler.o)
 .debug_rnglists
                0x00001cd7       0x19 c:/Users/Galileo/Projects/ELEC60011-fpga/system_template_de1_soc/software/hello_world2_bsp/\libhal_bsp.a(alt_instruction_exception_entry.o)
 .debug_rnglists
                0x00001cf0       0x13 c:/intelfpga_lite/23.1std/nios2eds/bin/gnu/h-x86_64-mingw32/bin/../lib/gcc/nios2-elf/12.3.1/../../../../../H-x86_64-mingw32/nios2-elf/lib/mhw-mulx\libc.a(libc_a-memcmp.o)
